Archive member included because of file (symbol)

darjeeling.a(main.o)          /usr/local/CrossPack-AVR-20131216/lib/gcc/avr/4.8.1/../../../../avr/lib/avr6/crtm2560.o (main)
darjeeling.a(avr.o)           darjeeling.a(main.o) (avr_serialInit)
darjeeling.a(core.o)          darjeeling.a(main.o) (core_init)
darjeeling.a(debug.o)         darjeeling.a(main.o) (darjeeling_debug_indent_index)
darjeeling.a(djarchive.o)     darjeeling.a(main.o) (di_app_archive)
darjeeling.a(djtimer.o)       darjeeling.a(core.o) (dj_timer_init)
darjeeling.a(heap.o)          darjeeling.a(core.o) (dj_mem_init)
darjeeling.a(hooks.o)         darjeeling.a(main.o) (dj_hook_call)
darjeeling.a(panic.o)         darjeeling.a(debug.o) (dj_panic)
darjeeling.a(vm.o)            darjeeling.a(main.o) (dj_vm_main)
darjeeling.a(vm_gc.o)         darjeeling.a(vm.o) (vm_mem_setPanicExceptionObject)
darjeeling.a(vmthread.o)      darjeeling.a(vm.o) (dj_thread_create)
darjeeling.a(app_infusions.o)
                              darjeeling.a(main.o) (di_app_infusion_archive_data)
darjeeling.a(lib_infusions.o)
                              darjeeling.a(main.o) (di_lib_infusions_archive_data)
darjeeling.a(GENERATEDlibinit.o)
                              darjeeling.a(core.o) (dj_libraries_init)
darjeeling.a(array.o)         darjeeling.a(vm_gc.o) (dj_ref_array_updatePointers)
darjeeling.a(base_init.o)     darjeeling.a(GENERATEDlibinit.o) (base_init)
darjeeling.a(darjeeling3_init.o)
                              darjeeling.a(GENERATEDlibinit.o) (darjeeling3_init)
darjeeling.a(execution.o)     darjeeling.a(vm.o) (dj_exec_setVM)
darjeeling.a(global_id.o)     darjeeling.a(execution.o) (dj_global_id_resolve)
darjeeling.a(infusion.o)      darjeeling.a(vm.o) (dj_infusion_create)
darjeeling.a(jlib_base.o)     darjeeling.a(GENERATEDlibinit.o) (base_native_handler)
darjeeling.a(jlib_darjeeling3.o)
                              darjeeling.a(GENERATEDlibinit.o) (darjeeling3_native_handler)
darjeeling.a(jlib_wkpf_virtual.o)
                              darjeeling.a(GENERATEDlibinit.o) (wkpf_virtual_native_handler)
darjeeling.a(jstring.o)       darjeeling.a(execution.o) (dj_jstring_createFromGlobalId)
darjeeling.a(object.o)        darjeeling.a(vm.o) (dj_object_create)
darjeeling.a(uart_init.o)     darjeeling.a(GENERATEDlibinit.o) (uart_init)
darjeeling.a(util.o)          darjeeling.a(vm.o) (dj_di_strEquals)
darjeeling.a(vm_init.o)       darjeeling.a(GENERATEDlibinit.o) (vm_init)
darjeeling.a(wkcomm_init.o)   darjeeling.a(GENERATEDlibinit.o) (wkcomm_init)
darjeeling.a(wkpf_init.o)     darjeeling.a(GENERATEDlibinit.o) (wkpf_init)
darjeeling.a(wkpf_virtual_init.o)
                              darjeeling.a(GENERATEDlibinit.o) (wkpf_virtual_init)
darjeeling.a(wkreprog_init.o)
                              darjeeling.a(GENERATEDlibinit.o) (wkreprog_init)
darjeeling.a(GENERATEDnative_wuclasses.o)
                              darjeeling.a(wkpf_init.o) (wkpf_native_wuclasses_init)
darjeeling.a(GENERATEDwuclass_ir_sensor.o)
                              darjeeling.a(GENERATEDnative_wuclasses.o) (wuclass_ir_sensor)
darjeeling.a(GENERATEDwuclass_led.o)
                              darjeeling.a(GENERATEDnative_wuclasses.o) (wuclass_led)
darjeeling.a(GENERATEDwuclass_magnetic_sensor.o)
                              darjeeling.a(GENERATEDnative_wuclasses.o) (wuclass_magnetic_sensor)
darjeeling.a(GENERATEDwuclass_or_gate.o)
                              darjeeling.a(GENERATEDnative_wuclasses.o) (wuclass_or_gate)
darjeeling.a(GENERATEDwuclass_pir_sensor.o)
                              darjeeling.a(GENERATEDnative_wuclasses.o) (wuclass_pir_sensor)
darjeeling.a(GENERATEDwuclass_ultrasound_sensor.o)
                              darjeeling.a(GENERATEDnative_wuclasses.o) (wuclass_ultrasound_sensor)
darjeeling.a(java_lang_Object.o)
                              darjeeling.a(jlib_base.o) (java_lang_Object_java_lang_String_toString)
darjeeling.a(java_lang_Runtime.o)
                              darjeeling.a(jlib_base.o) (java_lang_Runtime_void_exit_int)
darjeeling.a(java_lang_System.o)
                              darjeeling.a(jlib_base.o) (java_lang_System_long_currentTimeMillis)
darjeeling.a(java_lang_Thread.o)
                              darjeeling.a(jlib_base.o) (java_lang_Thread_short__create)
darjeeling.a(javax_darjeeling_Darjeeling.o)
                              darjeeling.a(jlib_darjeeling3.o) (javax_darjeeling_Darjeeling_void_assertTrue_int_boolean)
darjeeling.a(javax_darjeeling_vm_Infusion.o)
                              darjeeling.a(jlib_base.o) (javax_darjeeling_vm_Infusion_short_getInfusionCount)
darjeeling.a(javax_wukong_wkpf_WKPF.o)
                              darjeeling.a(jlib_wkpf_virtual.o) (javax_wukong_wkpf_WKPF_byte_getErrorCode)
darjeeling.a(routing_none.o)  darjeeling.a(wkcomm_init.o) (routing_init)
darjeeling.a(wkcomm.o)        darjeeling.a(routing_none.o) (wkcomm_handle_message)
darjeeling.a(wkpf_comm.o)     darjeeling.a(javax_wukong_wkpf_WKPF.o) (wkpf_send_set_linktable)
darjeeling.a(wkpf_config.o)   darjeeling.a(wkpf_comm.o) (wkpf_config_set_part_of_location_string)
darjeeling.a(wkpf_gc.o)       darjeeling.a(wkpf_init.o) (wkpf_markRootSet)
darjeeling.a(wkpf_links.o)    darjeeling.a(wkpf_comm.o) (wkpf_generate_piggyback_token)
darjeeling.a(wkpf_main.o)     darjeeling.a(javax_wukong_wkpf_WKPF.o) (wkpf_initLinkTableAndComponentMap)
darjeeling.a(wkpf_properties.o)
                              darjeeling.a(javax_wukong_wkpf_WKPF.o) (wkpf_read_property_int16)
darjeeling.a(wkpf_virtual_wuclasses.o)
                              darjeeling.a(javax_wukong_wkpf_WKPF.o) (wkpf_register_virtual_wuclass)
darjeeling.a(wkpf_wuclasses.o)
                              darjeeling.a(wkpf_links.o) (wkpf_get_wuclass_by_id)
darjeeling.a(wkpf_wuobjects.o)
                              darjeeling.a(javax_wukong_wkpf_WKPF.o) (wkpf_remove_wuobject)
darjeeling.a(wkreprog.o)      darjeeling.a(wkpf_links.o) (wkreprog_open)
darjeeling.a(wkreprog_comm.o)
                              darjeeling.a(wkreprog_init.o) (wkreprog_comm_handle_message)
darjeeling.a(wkreprog_impl.o)
                              darjeeling.a(wkreprog_comm.o) (wkreprog_impl_get_page_size)
darjeeling.a(wuclass_LED_update.o)
                              darjeeling.a(GENERATEDwuclass_led.o) (wuclass_led_setup)
darjeeling.a(wuclass_ir_sensor_update.o)
                              darjeeling.a(GENERATEDwuclass_ir_sensor.o) (wuclass_ir_sensor_setup)
darjeeling.a(wuclass_magnetic_sensor_update.o)
                              darjeeling.a(GENERATEDwuclass_magnetic_sensor.o) (wuclass_magnetic_sensor_setup)
darjeeling.a(wuclass_or_gate_update.o)
                              darjeeling.a(GENERATEDwuclass_or_gate.o) (wuclass_or_gate_setup)
darjeeling.a(wuclass_pir_sensor.o)
                              darjeeling.a(GENERATEDwuclass_pir_sensor.o) (wuclass_pir_sensor_setup)
darjeeling.a(wuclass_ultrasound_sensor_update.o)
                              darjeeling.a(GENERATEDwuclass_ultrasound_sensor.o) (wuclass_ultrasound_sensor_setup)
darjeeling.a(radio_zwave.o)   darjeeling.a(routing_none.o) (radio_zwave_get_node_id)
darjeeling.a(radio_zwave_platform_dependent.o)
                              darjeeling.a(radio_zwave.o) (radio_zwave_platform_dependent_init)
darjeeling.a(uart.o)          darjeeling.a(radio_zwave.o) (uart_inituart)
/usr/local/CrossPack-AVR-20131216/lib/gcc/avr/4.8.1/avr6/libgcc.a(_mulsi3.o)
                              darjeeling.a(execution.o) (__mulsi3)
/usr/local/CrossPack-AVR-20131216/lib/gcc/avr/4.8.1/avr6/libgcc.a(_udivmodhi4.o)
                              darjeeling.a(wkreprog_comm.o) (__udivmodhi4)
/usr/local/CrossPack-AVR-20131216/lib/gcc/avr/4.8.1/avr6/libgcc.a(_udivmodsi4.o)
                              darjeeling.a(avr.o) (__udivmodsi4)
/usr/local/CrossPack-AVR-20131216/lib/gcc/avr/4.8.1/avr6/libgcc.a(_divmodsi4.o)
                              darjeeling.a(execution.o) (__divmodsi4)
/usr/local/CrossPack-AVR-20131216/lib/gcc/avr/4.8.1/avr6/libgcc.a(_negsi2.o)
                              /usr/local/CrossPack-AVR-20131216/lib/gcc/avr/4.8.1/avr6/libgcc.a(_divmodsi4.o) (__negsi2)
/usr/local/CrossPack-AVR-20131216/lib/gcc/avr/4.8.1/avr6/libgcc.a(_exit.o)
                              /usr/local/CrossPack-AVR-20131216/lib/gcc/avr/4.8.1/../../../../avr/lib/avr6/crtm2560.o (exit)
/usr/local/CrossPack-AVR-20131216/lib/gcc/avr/4.8.1/avr6/libgcc.a(_tablejump.o)
                              darjeeling.a(panic.o) (__tablejump2__)
/usr/local/CrossPack-AVR-20131216/lib/gcc/avr/4.8.1/avr6/libgcc.a(_copy_data.o)
                              darjeeling.a(debug.o) (__do_copy_data)
/usr/local/CrossPack-AVR-20131216/lib/gcc/avr/4.8.1/avr6/libgcc.a(_clear_bss.o)
                              darjeeling.a(main.o) (__do_clear_bss)
/usr/local/CrossPack-AVR-20131216/lib/gcc/avr/4.8.1/avr6/libgcc.a(_muluhisi3.o)
                              /usr/local/CrossPack-AVR-20131216/lib/gcc/avr/4.8.1/avr6/libgcc.a(_mulsi3.o) (__muluhisi3)
/usr/local/CrossPack-AVR-20131216/lib/gcc/avr/4.8.1/avr6/libgcc.a(_muldi3.o)
                              darjeeling.a(execution.o) (__muldi3)
/usr/local/CrossPack-AVR-20131216/lib/gcc/avr/4.8.1/avr6/libgcc.a(_muldi3_6.o)
                              /usr/local/CrossPack-AVR-20131216/lib/gcc/avr/4.8.1/avr6/libgcc.a(_muldi3.o) (__muldi3_6)
/usr/local/CrossPack-AVR-20131216/lib/gcc/avr/4.8.1/avr6/libgcc.a(_divdi3.o)
                              darjeeling.a(execution.o) (__moddi3)
/usr/local/CrossPack-AVR-20131216/lib/gcc/avr/4.8.1/avr6/libgcc.a(_udivdi3.o)
                              /usr/local/CrossPack-AVR-20131216/lib/gcc/avr/4.8.1/avr6/libgcc.a(_divdi3.o) (__udivdi3_umoddi3)
/usr/local/CrossPack-AVR-20131216/lib/gcc/avr/4.8.1/avr6/libgcc.a(_udivmod64.o)
                              /usr/local/CrossPack-AVR-20131216/lib/gcc/avr/4.8.1/avr6/libgcc.a(_divdi3.o) (__udivmod64)
/usr/local/CrossPack-AVR-20131216/lib/gcc/avr/4.8.1/avr6/libgcc.a(_negdi2.o)
                              darjeeling.a(execution.o) (__negdi2)
/usr/local/CrossPack-AVR-20131216/lib/gcc/avr/4.8.1/avr6/libgcc.a(_prologue.o)
                              /usr/local/CrossPack-AVR-20131216/lib/gcc/avr/4.8.1/avr6/libgcc.a(_divdi3.o) (__prologue_saves__)
/usr/local/CrossPack-AVR-20131216/lib/gcc/avr/4.8.1/avr6/libgcc.a(_epilogue.o)
                              /usr/local/CrossPack-AVR-20131216/lib/gcc/avr/4.8.1/avr6/libgcc.a(_divdi3.o) (__epilogue_restores__)
/usr/local/CrossPack-AVR-20131216/lib/gcc/avr/4.8.1/avr6/libgcc.a(_ashldi3.o)
                              darjeeling.a(execution.o) (__ashldi3)
/usr/local/CrossPack-AVR-20131216/lib/gcc/avr/4.8.1/avr6/libgcc.a(_ashrdi3.o)
                              darjeeling.a(execution.o) (__ashrdi3)
/usr/local/CrossPack-AVR-20131216/lib/gcc/avr/4.8.1/avr6/libgcc.a(_adddi3.o)
                              darjeeling.a(vmthread.o) (__adddi3)
/usr/local/CrossPack-AVR-20131216/lib/gcc/avr/4.8.1/avr6/libgcc.a(_subdi3.o)
                              darjeeling.a(vm.o) (__subdi3)
/usr/local/CrossPack-AVR-20131216/lib/gcc/avr/4.8.1/avr6/libgcc.a(_cmpdi2.o)
                              darjeeling.a(vm.o) (__cmpdi2)
/usr/local/CrossPack-AVR-20131216/lib/gcc/avr/4.8.1/avr6/libgcc.a(_cmpdi2_s8.o)
                              darjeeling.a(vm.o) (__cmpdi2_s8)
/usr/local/CrossPack-AVR-20131216/lib/gcc/avr/4.8.1/avr6/libgcc.a(_umulhisi3.o)
                              /usr/local/CrossPack-AVR-20131216/lib/gcc/avr/4.8.1/avr6/libgcc.a(_muluhisi3.o) (__umulhisi3)
/usr/local/CrossPack-AVR-20131216/lib/gcc/avr/4.8.1/../../../../avr/lib/avr6/libm.a(addsf3.o)
                              darjeeling.a(wuclass_ir_sensor_update.o) (__subsf3)
/usr/local/CrossPack-AVR-20131216/lib/gcc/avr/4.8.1/../../../../avr/lib/avr6/libm.a(addsf3x.o)
                              /usr/local/CrossPack-AVR-20131216/lib/gcc/avr/4.8.1/../../../../avr/lib/avr6/libm.a(addsf3.o) (__addsf3x)
/usr/local/CrossPack-AVR-20131216/lib/gcc/avr/4.8.1/../../../../avr/lib/avr6/libm.a(divsf3.o)
                              darjeeling.a(wuclass_ultrasound_sensor_update.o) (__divsf3)
/usr/local/CrossPack-AVR-20131216/lib/gcc/avr/4.8.1/../../../../avr/lib/avr6/libm.a(divsf3x.o)
                              /usr/local/CrossPack-AVR-20131216/lib/gcc/avr/4.8.1/../../../../avr/lib/avr6/libm.a(divsf3.o) (__divsf3x)
/usr/local/CrossPack-AVR-20131216/lib/gcc/avr/4.8.1/../../../../avr/lib/avr6/libm.a(fixsfsi.o)
                              darjeeling.a(wuclass_ultrasound_sensor_update.o) (__fixsfsi)
/usr/local/CrossPack-AVR-20131216/lib/gcc/avr/4.8.1/../../../../avr/lib/avr6/libm.a(fixunssfsi.o)
                              darjeeling.a(wuclass_ir_sensor_update.o) (__fixunssfsi)
/usr/local/CrossPack-AVR-20131216/lib/gcc/avr/4.8.1/../../../../avr/lib/avr6/libm.a(floatsisf.o)
                              darjeeling.a(wuclass_ir_sensor_update.o) (__floatunsisf)
/usr/local/CrossPack-AVR-20131216/lib/gcc/avr/4.8.1/../../../../avr/lib/avr6/libm.a(fp_inf.o)
                              /usr/local/CrossPack-AVR-20131216/lib/gcc/avr/4.8.1/../../../../avr/lib/avr6/libm.a(addsf3x.o) (__fp_inf)
/usr/local/CrossPack-AVR-20131216/lib/gcc/avr/4.8.1/../../../../avr/lib/avr6/libm.a(fp_nan.o)
                              /usr/local/CrossPack-AVR-20131216/lib/gcc/avr/4.8.1/../../../../avr/lib/avr6/libm.a(addsf3x.o) (__fp_nan)
/usr/local/CrossPack-AVR-20131216/lib/gcc/avr/4.8.1/../../../../avr/lib/avr6/libm.a(fp_pscA.o)
                              /usr/local/CrossPack-AVR-20131216/lib/gcc/avr/4.8.1/../../../../avr/lib/avr6/libm.a(addsf3x.o) (__fp_pscA)
/usr/local/CrossPack-AVR-20131216/lib/gcc/avr/4.8.1/../../../../avr/lib/avr6/libm.a(fp_pscB.o)
                              /usr/local/CrossPack-AVR-20131216/lib/gcc/avr/4.8.1/../../../../avr/lib/avr6/libm.a(addsf3x.o) (__fp_pscB)
/usr/local/CrossPack-AVR-20131216/lib/gcc/avr/4.8.1/../../../../avr/lib/avr6/libm.a(fp_round.o)
                              /usr/local/CrossPack-AVR-20131216/lib/gcc/avr/4.8.1/../../../../avr/lib/avr6/libm.a(addsf3.o) (__fp_round)
/usr/local/CrossPack-AVR-20131216/lib/gcc/avr/4.8.1/../../../../avr/lib/avr6/libm.a(fp_split3.o)
                              /usr/local/CrossPack-AVR-20131216/lib/gcc/avr/4.8.1/../../../../avr/lib/avr6/libm.a(addsf3x.o) (__fp_split3)
/usr/local/CrossPack-AVR-20131216/lib/gcc/avr/4.8.1/../../../../avr/lib/avr6/libm.a(fp_zero.o)
                              /usr/local/CrossPack-AVR-20131216/lib/gcc/avr/4.8.1/../../../../avr/lib/avr6/libm.a(addsf3x.o) (__fp_zero)
/usr/local/CrossPack-AVR-20131216/lib/gcc/avr/4.8.1/../../../../avr/lib/avr6/libm.a(mulsf3.o)
                              darjeeling.a(wuclass_ir_sensor_update.o) (__mulsf3)
/usr/local/CrossPack-AVR-20131216/lib/gcc/avr/4.8.1/../../../../avr/lib/avr6/libm.a(mulsf3x.o)
                              /usr/local/CrossPack-AVR-20131216/lib/gcc/avr/4.8.1/../../../../avr/lib/avr6/libm.a(mulsf3.o) (__mulsf3x)
/usr/local/CrossPack-AVR-20131216/lib/gcc/avr/4.8.1/../../../../avr/lib/avr6/libm.a(pow.o)
                              darjeeling.a(wuclass_ir_sensor_update.o) (pow)
/usr/local/CrossPack-AVR-20131216/lib/gcc/avr/4.8.1/../../../../avr/lib/avr6/libm.a(exp.o)
                              /usr/local/CrossPack-AVR-20131216/lib/gcc/avr/4.8.1/../../../../avr/lib/avr6/libm.a(pow.o) (exp)
/usr/local/CrossPack-AVR-20131216/lib/gcc/avr/4.8.1/../../../../avr/lib/avr6/libm.a(fp_powser.o)
                              /usr/local/CrossPack-AVR-20131216/lib/gcc/avr/4.8.1/../../../../avr/lib/avr6/libm.a(exp.o) (__fp_powser)
/usr/local/CrossPack-AVR-20131216/lib/gcc/avr/4.8.1/../../../../avr/lib/avr6/libm.a(inverse.o)
                              /usr/local/CrossPack-AVR-20131216/lib/gcc/avr/4.8.1/../../../../avr/lib/avr6/libm.a(exp.o) (inverse)
/usr/local/CrossPack-AVR-20131216/lib/gcc/avr/4.8.1/../../../../avr/lib/avr6/libm.a(ldexp.o)
                              /usr/local/CrossPack-AVR-20131216/lib/gcc/avr/4.8.1/../../../../avr/lib/avr6/libm.a(exp.o) (ldexp)
/usr/local/CrossPack-AVR-20131216/lib/gcc/avr/4.8.1/../../../../avr/lib/avr6/libm.a(log.o)
                              /usr/local/CrossPack-AVR-20131216/lib/gcc/avr/4.8.1/../../../../avr/lib/avr6/libm.a(pow.o) (log)
/usr/local/CrossPack-AVR-20131216/lib/gcc/avr/4.8.1/../../../../avr/lib/avr6/libm.a(modf.o)
                              /usr/local/CrossPack-AVR-20131216/lib/gcc/avr/4.8.1/../../../../avr/lib/avr6/libm.a(exp.o) (modf)
/usr/local/CrossPack-AVR-20131216/lib/gcc/avr/4.8.1/../../../../avr/lib/avr6/libm.a(fp_mpack.o)
                              /usr/local/CrossPack-AVR-20131216/lib/gcc/avr/4.8.1/../../../../avr/lib/avr6/libm.a(ldexp.o) (__fp_mpack)
/usr/local/CrossPack-AVR-20131216/lib/gcc/avr/4.8.1/../../../../avr/lib/avr6/libc.a(memcpy.o)
                              darjeeling.a(java_lang_System.o) (memcpy)
/usr/local/CrossPack-AVR-20131216/lib/gcc/avr/4.8.1/../../../../avr/lib/avr6/libc.a(memmove.o)
                              darjeeling.a(heap.o) (memmove)
/usr/local/CrossPack-AVR-20131216/lib/gcc/avr/4.8.1/../../../../avr/lib/avr6/libc.a(memset.o)
                              darjeeling.a(vmthread.o) (memset)
/usr/local/CrossPack-AVR-20131216/lib/gcc/avr/4.8.1/../../../../avr/lib/avr6/libc.a(snprintf.o)
                              darjeeling.a(heap.o) (snprintf)
/usr/local/CrossPack-AVR-20131216/lib/gcc/avr/4.8.1/../../../../avr/lib/avr6/libc.a(vsnprintf.o)
                              darjeeling.a(avr.o) (vsnprintf)
/usr/local/CrossPack-AVR-20131216/lib/gcc/avr/4.8.1/../../../../avr/lib/avr6/libc.a(vfprintf_std.o)
                              /usr/local/CrossPack-AVR-20131216/lib/gcc/avr/4.8.1/../../../../avr/lib/avr6/libc.a(snprintf.o) (vfprintf)
/usr/local/CrossPack-AVR-20131216/lib/gcc/avr/4.8.1/../../../../avr/lib/avr6/libc.a(eerd_block_atmega2560.o)
                              darjeeling.a(wkpf_config.o) (__eerd_block_m2560)
/usr/local/CrossPack-AVR-20131216/lib/gcc/avr/4.8.1/../../../../avr/lib/avr6/libc.a(eerd_byte_atmega2560.o)
                              darjeeling.a(wkpf_config.o) (__eerd_byte_m2560)
/usr/local/CrossPack-AVR-20131216/lib/gcc/avr/4.8.1/../../../../avr/lib/avr6/libc.a(eerd_word_atmega2560.o)
                              darjeeling.a(wkpf_config.o) (__eerd_word_m2560)
/usr/local/CrossPack-AVR-20131216/lib/gcc/avr/4.8.1/../../../../avr/lib/avr6/libc.a(eeupd_block_atmega2560.o)
                              darjeeling.a(wkpf_config.o) (__eeupd_block_m2560)
/usr/local/CrossPack-AVR-20131216/lib/gcc/avr/4.8.1/../../../../avr/lib/avr6/libc.a(eeupd_byte_atmega2560.o)
                              darjeeling.a(wkpf_config.o) (__eeupd_byte_m2560)
/usr/local/CrossPack-AVR-20131216/lib/gcc/avr/4.8.1/../../../../avr/lib/avr6/libc.a(eeupd_word_atmega2560.o)
                              darjeeling.a(wkpf_config.o) (__eeupd_word_m2560)
/usr/local/CrossPack-AVR-20131216/lib/gcc/avr/4.8.1/../../../../avr/lib/avr6/libc.a(strnlen_P.o)
                              /usr/local/CrossPack-AVR-20131216/lib/gcc/avr/4.8.1/../../../../avr/lib/avr6/libc.a(vfprintf_std.o) (strnlen_P)
/usr/local/CrossPack-AVR-20131216/lib/gcc/avr/4.8.1/../../../../avr/lib/avr6/libc.a(strnlen.o)
                              /usr/local/CrossPack-AVR-20131216/lib/gcc/avr/4.8.1/../../../../avr/lib/avr6/libc.a(vfprintf_std.o) (strnlen)
/usr/local/CrossPack-AVR-20131216/lib/gcc/avr/4.8.1/../../../../avr/lib/avr6/libc.a(fputc.o)
                              /usr/local/CrossPack-AVR-20131216/lib/gcc/avr/4.8.1/../../../../avr/lib/avr6/libc.a(vfprintf_std.o) (fputc)
/usr/local/CrossPack-AVR-20131216/lib/gcc/avr/4.8.1/../../../../avr/lib/avr6/libc.a(ultoa_invert.o)
                              /usr/local/CrossPack-AVR-20131216/lib/gcc/avr/4.8.1/../../../../avr/lib/avr6/libc.a(vfprintf_std.o) (__ultoa_invert)

Allocating common symbols
Common symbol       size              file

vm_updatePointersHook
                    0x4               darjeeling.a(vm_init.o)
vm_postGCHook       0x4               darjeeling.a(vm_init.o)
payload_length      0x1               darjeeling.a(radio_zwave.o)
radio_zwave_receive_buffer
                    0x2f              darjeeling.a(radio_zwave.o)
avr_flash_pagebuffer
                    0x100             darjeeling.a(wkreprog_impl.o)
type                0x1               darjeeling.a(radio_zwave.o)
uart_wr             0x4               darjeeling.a(uart.o)
vm_markObjectHook   0x4               darjeeling.a(vm_init.o)
wkcomm_wait_reply_commands
                    0x2               darjeeling.a(wkcomm.o)
wkpf_comm_handleMessageHook
                    0x4               darjeeling.a(wkpf_init.o)
wkcomm_wait_reply_seqnr
                    0x2               darjeeling.a(wkcomm.o)
state               0x1               darjeeling.a(radio_zwave.o)
di_app_archive      0x2               darjeeling.a(djarchive.o)
uart_buf            0x100             darjeeling.a(uart.o)
zwave_time_learn_start
                    0x4               darjeeling.a(radio_zwave.o)
wkcomm_pollingHook  0x4               darjeeling.a(wkcomm_init.o)
wkreprog_comm_handleMessageHook
                    0x4               darjeeling.a(wkreprog_init.o)
mem                 0x1000            darjeeling.a(main.o)
wkpf_updatePointersHook
                    0x4               darjeeling.a(wkpf_init.o)
uart_rd             0x4               darjeeling.a(uart.o)
seq                 0x1               darjeeling.a(radio_zwave.o)
vm_markRootSetHook  0x4               darjeeling.a(vm_init.o)
wkcomm_wait_reply_number_of_commands
                    0x1               darjeeling.a(wkcomm.o)
wkcomm_received_reply
                    0x8               darjeeling.a(wkcomm.o)
dj_exec_runlevel    0x1               darjeeling.a(core.o)
wkpf_markRootSetHook
                    0x4               darjeeling.a(wkpf_init.o)
len                 0x1               darjeeling.a(radio_zwave.o)
cmd                 0x1               darjeeling.a(radio_zwave.o)

Memory Configuration

Name             Origin             Length             Attributes
text             0x00000000         0x00100000         xr
data             0x00800200         0x0000fe00         rw !x
eeprom           0x00810000         0x00010000         rw !x
fuse             0x00820000         0x00000400         rw !x
lock             0x00830000         0x00000400         rw !x
signature        0x00840000         0x00000400         rw !x
user_signatures  0x00850000         0x00000400         rw !x
*default*        0x00000000         0xffffffff

Linker script and memory map

Address of section .data set to 0x800200
LOAD /usr/local/CrossPack-AVR-20131216/lib/gcc/avr/4.8.1/../../../../avr/lib/avr6/crtm2560.o
Address of section .reprogram_flash_page set to 0x3f000
LOAD darjeeling.a
START GROUP
LOAD /usr/local/CrossPack-AVR-20131216/lib/gcc/avr/4.8.1/avr6/libgcc.a
LOAD /usr/local/CrossPack-AVR-20131216/lib/gcc/avr/4.8.1/../../../../avr/lib/avr6/libm.a
LOAD /usr/local/CrossPack-AVR-20131216/lib/gcc/avr/4.8.1/../../../../avr/lib/avr6/libc.a
END GROUP

.hash
 *(.hash)

.dynsym
 *(.dynsym)

.dynstr
 *(.dynstr)

.gnu.version
 *(.gnu.version)

.gnu.version_d
 *(.gnu.version_d)

.gnu.version_r
 *(.gnu.version_r)

.rel.init
 *(.rel.init)

.rela.init
 *(.rela.init)

.rel.text
 *(.rel.text)
 *(.rel.text.*)
 *(.rel.gnu.linkonce.t*)

.rela.text
 *(.rela.text)
 *(.rela.text.*)
 *(.rela.gnu.linkonce.t*)

.rel.fini
 *(.rel.fini)

.rela.fini
 *(.rela.fini)

.rel.rodata
 *(.rel.rodata)
 *(.rel.rodata.*)
 *(.rel.gnu.linkonce.r*)

.rela.rodata
 *(.rela.rodata)
 *(.rela.rodata.*)
 *(.rela.gnu.linkonce.r*)

.rel.data
 *(.rel.data)
 *(.rel.data.*)
 *(.rel.gnu.linkonce.d*)

.rela.data
 *(.rela.data)
 *(.rela.data.*)
 *(.rela.gnu.linkonce.d*)

.rel.ctors
 *(.rel.ctors)

.rela.ctors
 *(.rela.ctors)

.rel.dtors
 *(.rel.dtors)

.rela.dtors
 *(.rela.dtors)

.rel.got
 *(.rel.got)

.rela.got
 *(.rela.got)

.rel.bss
 *(.rel.bss)

.rela.bss
 *(.rela.bss)

.rel.plt
 *(.rel.plt)

.rela.plt
 *(.rela.plt)

.text           0x00000000    0x12e5c
 *(.vectors)
 .vectors       0x00000000       0xe4 /usr/local/CrossPack-AVR-20131216/lib/gcc/avr/4.8.1/../../../../avr/lib/avr6/crtm2560.o
                0x00000000                __vectors
                0x00000000                __vector_default
 *(.vectors)
 *(.progmem.gcc*)
 .progmem.gcc_sw_table
                0x000000e4       0x12 darjeeling.a(panic.o)
 .progmem.gcc_sw_table
                0x000000f6      0x1b6 darjeeling.a(execution.o)
 .progmem.gcc_sw_table
                0x000002ac       0x10 darjeeling.a(jlib_darjeeling3.o)
 .progmem.gcc_sw_table
                0x000002bc       0x20 darjeeling.a(jlib_wkpf_virtual.o)
 .progmem.gcc_sw_table
                0x000002dc       0x10 darjeeling.a(java_lang_System.o)
 .progmem.gcc_sw_table
                0x000002ec       0x2a darjeeling.a(wkpf_comm.o)
 .progmem.gcc_fplib
                0x00000316       0x28 /usr/local/CrossPack-AVR-20131216/lib/gcc/avr/4.8.1/../../../../avr/lib/avr6/libm.a(exp.o)
 .progmem.gcc_fplib
                0x0000033e       0x5a /usr/local/CrossPack-AVR-20131216/lib/gcc/avr/4.8.1/../../../../avr/lib/avr6/libm.a(log.o)
                0x00000398                . = ALIGN (0x2)
                0x00000398                __trampolines_start = .
 *(.trampolines)
 .trampolines   0x00000398      0x48c linker stubs
 *(.trampolines*)
                0x00000824                __trampolines_end = .
 *(.progmem*)
 *fill*         0x00000824       0xdc 
 .progmem.data  0x00000900     0x1000 darjeeling.a(app_infusions.o)
                0x00000900                di_app_infusion_archive_data
 .progmem.data  0x00001900     0x33db darjeeling.a(lib_infusions.o)
                0x00001900                di_lib_infusions_archive_data
                0x00004cdc                . = ALIGN (0x2)
 *fill*         0x00004cdb        0x1 
 *(.jumptables)
 *(.jumptables*)
 *(.lowtext)
 *(.lowtext*)
                0x00004cdc                __ctors_start = .
 *(.ctors)
                0x00004cdc                __ctors_end = .
                0x00004cdc                __dtors_start = .
 *(.dtors)
                0x00004cdc                __dtors_end = .
 SORT(*)(.ctors)
 SORT(*)(.dtors)
 *(.init0)
 .init0         0x00004cdc        0x0 /usr/local/CrossPack-AVR-20131216/lib/gcc/avr/4.8.1/../../../../avr/lib/avr6/crtm2560.o
                0x00004cdc                __init
 *(.init0)
 *(.init1)
 *(.init1)
 *(.init2)
 .init2         0x00004cdc       0x10 /usr/local/CrossPack-AVR-20131216/lib/gcc/avr/4.8.1/../../../../avr/lib/avr6/crtm2560.o
 *(.init2)
 *(.init3)
 *(.init3)
 *(.init4)
 .init4         0x00004cec       0x1a /usr/local/CrossPack-AVR-20131216/lib/gcc/avr/4.8.1/avr6/libgcc.a(_copy_data.o)
                0x00004cec                __do_copy_data
 .init4         0x00004d06       0x10 /usr/local/CrossPack-AVR-20131216/lib/gcc/avr/4.8.1/avr6/libgcc.a(_clear_bss.o)
                0x00004d06                __do_clear_bss
 *(.init4)
 *(.init5)
 *(.init5)
 *(.init6)
 *(.init6)
 *(.init7)
 *(.init7)
 *(.init8)
 *(.init8)
 *(.init9)
 .init9         0x00004d16        0x8 /usr/local/CrossPack-AVR-20131216/lib/gcc/avr/4.8.1/../../../../avr/lib/avr6/crtm2560.o
 *(.init9)
 *(.text)
 .text          0x00004d1e        0x4 /usr/local/CrossPack-AVR-20131216/lib/gcc/avr/4.8.1/../../../../avr/lib/avr6/crtm2560.o
                0x00004d1e                __vector_42
                0x00004d1e                __vector_22
                0x00004d1e                __vector_28
                0x00004d1e                __vector_1
                0x00004d1e                __vector_32
                0x00004d1e                __vector_34
                0x00004d1e                __vector_24
                0x00004d1e                __vector_12
                0x00004d1e                __vector_55
                0x00004d1e                __vector_46
                0x00004d1e                __bad_interrupt
                0x00004d1e                __vector_6
                0x00004d1e                __vector_31
                0x00004d1e                __vector_35
                0x00004d1e                __vector_39
                0x00004d1e                __vector_3
                0x00004d1e                __vector_30
                0x00004d1e                __vector_45
                0x00004d1e                __vector_11
                0x00004d1e                __vector_13
                0x00004d1e                __vector_17
                0x00004d1e                __vector_19
                0x00004d1e                __vector_56
                0x00004d1e                __vector_7
                0x00004d1e                __vector_49
                0x00004d1e                __vector_41
                0x00004d1e                __vector_43
                0x00004d1e                __vector_27
                0x00004d1e                __vector_5
                0x00004d1e                __vector_33
                0x00004d1e                __vector_47
                0x00004d1e                __vector_52
                0x00004d1e                __vector_37
                0x00004d1e                __vector_4
                0x00004d1e                __vector_44
                0x00004d1e                __vector_9
                0x00004d1e                __vector_2
                0x00004d1e                __vector_21
                0x00004d1e                __vector_15
                0x00004d1e                __vector_29
                0x00004d1e                __vector_40
                0x00004d1e                __vector_8
                0x00004d1e                __vector_26
                0x00004d1e                __vector_48
                0x00004d1e                __vector_14
                0x00004d1e                __vector_53
                0x00004d1e                __vector_10
                0x00004d1e                __vector_50
                0x00004d1e                __vector_16
                0x00004d1e                __vector_18
                0x00004d1e                __vector_20
                0x00004d1e                __vector_38
 .text          0x00004d22        0x0 darjeeling.a(main.o)
 .text          0x00004d22      0x1d0 darjeeling.a(avr.o)
                0x00004d22                __vector_23
                0x00004db6                avr_millis
                0x00004dce                avr_delay
                0x00004e12                avr_timerInit
                0x00004e36                avr_serialInit
                0x00004e7e                avr_serialWrite
                0x00004e8c                avr_serialPrint
                0x00004ebe                avr_serialVPrint
                0x00004ed6                avr_serialPrintf
 .text          0x00004ef2       0x3e darjeeling.a(core.o)
                0x00004ef2                core_init
 .text          0x00004f30       0x34 darjeeling.a(debug.o)
                0x00004f30                dj_dump_stack
                0x00004f32                dj_dump_int_array
 .text          0x00004f64       0x48 darjeeling.a(djarchive.o)
                0x00004f64                dj_archive_number_of_files
                0x00004f88                dj_archive_get_file
 .text          0x00004fac       0x26 darjeeling.a(djtimer.o)
                0x00004fac                dj_timer_init
                0x00004fb0                dj_timer_getTimeMillis
                0x00004fce                dj_timer_delay
 .text          0x00004fd2      0x582 darjeeling.a(heap.o)
                0x00004fd2                dj_mem_init
                0x00005018                dj_mem_free
                0x00005058                dj_mem_getSize
                0x00005062                dj_mem_getFree
                0x00005078                dj_mem_addSafePointer
                0x000050ae                dj_mem_countSafePointers
                0x000050ca                dj_mem_removeSafePointer
                0x000050e8                dj_mem_shiftRuntimeIDs
                0x00005158                dj_mem_getFirstChunk
                0x00005162                dj_mem_getNextChunk
                0x0000519c                dj_mem_compact
                0x000052ca                dj_mem_gc
                0x0000540a                dj_mem_alloc
                0x000054a4                dj_mem_dump
 .text          0x00005554       0xb2 darjeeling.a(hooks.o)
                0x00005554                dj_hook_add
                0x000055dc                dj_hook_call
 .text          0x00005606      0x3a6 darjeeling.a(panic.o)
                0x00005606                dj_panic
 .text          0x000059ac     0x11fa darjeeling.a(vm.o)
                0x000059c4                dj_vm_create
                0x000059f6                dj_vm_destroy
                0x000059fa                dj_vm_addInfusion
                0x00005a5a                dj_vm_countInfusions
                0x00005a78                dj_vm_getInfusionId
                0x00005a9e                dj_vm_getInfusion
                0x00005aca                dj_vm_lookupInfusion
                0x00005b08                dj_vm_safeToUnload
                0x00005b42                dj_vm_unloadInfusion
                0x00005c26                dj_vm_getSysLibClassRuntimeId
                0x00005c36                dj_vm_addThread
                0x00005c86                dj_vm_removeThread
                0x00005cc4                dj_vm_countThreads
                0x00005ce2                dj_vm_notify
                0x00005d18                dj_vm_checkFinishedThreads
                0x00005d6a                dj_vm_getThread
                0x00005d8c                dj_vm_getThreadById
                0x00005db6                dj_vm_countLiveThreads
                0x00005ddc                dj_vm_getVMSleepTime
                0x00005f68                dj_vm_activateThread
                0x00005fa4                dj_vm_mem_updatePointers
                0x00005fec                dj_vm_getMonitor
                0x0000615c                dj_vm_wakeThreads
                0x0000628e                dj_vm_schedule
                0x000062d8                dj_vm_removeMonitor
                0x000063f2                dj_vm_getRuntimeClass
                0x0000646e                dj_vm_getRuntimeClassDefinition
                0x00006482                dj_vm_createSysLibObject
                0x000064d4                dj_vm_getSystemInfusion
                0x000064dc                dj_vm_runClassInitialisers
                0x0000666e                dj_vm_loadInfusion
                0x0000699e                dj_vm_loadInfusionArchive
                0x00006a3c                dj_vm_main
 .text          0x00006ba6      0x30e darjeeling.a(vm_gc.o)
                0x00006bfe                vm_mem_setPanicExceptionObject
                0x00006c08                vm_mem_getPanicExceptionObject
                0x00006c12                vm_mem_preGC
                0x00006c4e                vm_mem_postGC
                0x00006c66                vm_mem_markRootSet
                0x00006ce2                vm_mem_markObject
                0x00006d9a                vm_mem_updatePointers
 .text          0x00006eb4      0x5f2 darjeeling.a(vmthread.o)
                0x00006ee4                dj_thread_create
                0x00006f22                dj_thread_destroy
                0x00006f26                dj_thread_pushFrame
                0x00006f3a                dj_thread_popFrame
                0x00006f54                dj_frame_markRootSet
                0x00007028                dj_frame_updatePointers
                0x00007132                dj_thread_markRootSet
                0x00007180                dj_thread_updatePointers
                0x000071bc                dj_thread_sleep
                0x0000720c                dj_thread_wait
                0x0000728c                dj_frame_create
                0x00007384                dj_thread_create_and_run
                0x000073e6                dj_monitor_block_create
                0x00007402                dj_monitor_block_updatePointers
                0x00007458                dj_monitor_markRootSet
 .text          0x000074a6        0x0 darjeeling.a(app_infusions.o)
 .text          0x000074a6        0x0 darjeeling.a(lib_infusions.o)
 .text          0x000074a6       0x20 darjeeling.a(GENERATEDlibinit.o)
                0x000074a6                dj_libraries_init
 .text          0x000074c6      0x138 darjeeling.a(array.o)
                0x000074c6                dj_int_array_create
                0x00007560                dj_int_array_destroy
                0x00007564                dj_ref_array_create
                0x000075be                dj_ref_array_destroy
                0x000075c2                dj_ref_array_updatePointers
 .text          0x000075fe        0x2 darjeeling.a(base_init.o)
                0x000075fe                base_init
 .text          0x00007600        0x2 darjeeling.a(darjeeling3_init.o)
                0x00007600                darjeeling3_init
 .text          0x00007602     0x30ce darjeeling.a(execution.o)
                0x00007c8a                dj_exec_setVM
                0x00007ca4                dj_exec_getVM
                0x00007cae                dj_exec_breakExecution
                0x00007cbc                dj_exec_deactivateThread
                0x00007cd0                dj_exec_activate_thread
                0x00007dea                dj_exec_updatePointers
                0x00007e38                dj_exec_getCurrentInfusion
                0x00007eb6                dj_exec_getCurrentThread
                0x00007ec4                dj_exec_stackPushShort
                0x00007ec8                dj_exec_stackPushInt
                0x00007ecc                dj_exec_stackPushLong
                0x00007ed0                dj_exec_stackPushRef
                0x00007ed4                dj_exec_stackPopShort
                0x00007ed8                dj_exec_stackPopInt
                0x00007edc                dj_exec_stackPopLong
                0x00007ee0                dj_exec_stackPopRef
                0x00007ee4                dj_exec_stackPeekShort
                0x00007ef4                dj_exec_stackPeekInt
                0x00007f08                dj_exec_stackPeekLong
                0x00007f44                dj_exec_stackPeekRef
                0x00007f52                dj_exec_throw
                0x0000820a                dj_exec_throwHere
                0x00008216                dj_exec_createAndThrow
                0x00008646                dj_exec_run
 .text          0x0000a6d0      0x4d6 darjeeling.a(global_id.o)
                0x0000a6d0                dj_global_id_resolve
                0x0000a6f6                dj_global_id_mapToInfusion
                0x0000a706                dj_global_id_equals
                0x0000a71a                dj_global_id_isJavaLangObject
                0x0000a748                dj_global_id_getRuntimeClassId
                0x0000a758                dj_global_id_getClassDefinition
                0x0000a7a4                dj_global_id_implements
                0x0000a87c                dj_global_id_isEqualToOrChildOf
                0x0000a918                dj_global_id_testClassType
                0x0000a95c                dj_global_id_testType
                0x0000a9fe                dj_global_id_lookupVirtualMethod
                0x0000ab86                dj_global_id_getMethodImplementation
                0x0000ab96                dj_global_id_getString
 .text          0x0000aba6      0x444 darjeeling.a(infusion.o)
                0x0000aba6                dj_infusion_create
                0x0000ad94                dj_infusion_destroy
                0x0000ad98                dj_infusion_getReferencedInfusionIndex
                0x0000ade6                dj_infusion_markRootSet
                0x0000ae32                dj_infusion_updatePointers
                0x0000af3a                dj_infusion_getName
                0x0000af74                dj_infusion_getClassDefinition
                0x0000af9a                dj_infusion_getMethodImplementation
                0x0000afc0                dj_infusion_getString
 .text          0x0000afea       0xd0 darjeeling.a(jlib_base.o)
                0x0000afea                base_native_handler
 .text          0x0000b0ba       0x32 darjeeling.a(jlib_darjeeling3.o)
                0x0000b0ba                darjeeling3_native_handler
 .text          0x0000b0ec       0x56 darjeeling.a(jlib_wkpf_virtual.o)
                0x0000b0ec                wkpf_virtual_native_handler
 .text          0x0000b142      0x1a2 darjeeling.a(jstring.o)
                0x0000b142                dj_jstring_create
                0x0000b206                dj_jstring_createFromStr
                0x0000b258                dj_jstring_createFromGlobalId
 .text          0x0000b2e4       0x48 darjeeling.a(object.o)
                0x0000b2e4                dj_object_create
                0x0000b322                dj_object_getRuntimeId
 .text          0x0000b32c        0x2 darjeeling.a(uart_init.o)
                0x0000b32c                uart_init
 .text          0x0000b32e       0x5c darjeeling.a(util.o)
                0x0000b32e                dj_di_strEquals
                0x0000b362                dj_di_strEqualsDirectStr
 .text          0x0000b38a       0x60 darjeeling.a(vm_init.o)
                0x0000b38a                vm_init
 .text          0x0000b3ea       0x1c darjeeling.a(wkcomm_init.o)
                0x0000b3ea                wkcomm_init
 .text          0x0000b406       0x60 darjeeling.a(wkpf_init.o)
                0x0000b406                led_init
                0x0000b408                wkpf_init
 .text          0x0000b466        0x2 darjeeling.a(wkpf_virtual_init.o)
                0x0000b466                wkpf_virtual_init
 .text          0x0000b468       0x18 darjeeling.a(wkreprog_init.o)
                0x0000b468                wkreprog_init
 .text          0x0000b480      0x1aa darjeeling.a(GENERATEDnative_wuclasses.o)
                0x0000b480                wkpf_native_wuclasses_init
 .text          0x0000b62a        0x0 darjeeling.a(GENERATEDwuclass_ir_sensor.o)
 .text          0x0000b62a        0x4 darjeeling.a(GENERATEDwuclass_led.o)
                0x0000b62a                wuclass_led_getPrivateData
 .text          0x0000b62e        0x0 darjeeling.a(GENERATEDwuclass_magnetic_sensor.o)
 .text          0x0000b62e        0x4 darjeeling.a(GENERATEDwuclass_or_gate.o)
                0x0000b62e                wuclass_or_gate_getPrivateData
 .text          0x0000b632        0x0 darjeeling.a(GENERATEDwuclass_pir_sensor.o)
 .text          0x0000b632        0x0 darjeeling.a(GENERATEDwuclass_ultrasound_sensor.o)
 .text          0x0000b632      0x164 darjeeling.a(java_lang_Object.o)
                0x0000b632                java_lang_Object_void_wait_int
                0x0000b69e                java_lang_Object_void_wait
                0x0000b6da                java_lang_Object_void_notify
                0x0000b6f4                java_lang_Object_void_notifyAll
                0x0000b70e                java_lang_Object_java_lang_String_toString
                0x0000b784                java_lang_Object_int_hashCode
 .text          0x0000b796       0x22 darjeeling.a(java_lang_Runtime.o)
                0x0000b796                java_lang_Runtime_void_exit_int
                0x0000b798                java_lang_Runtime_int_freeMemory
                0x0000b7a6                java_lang_Runtime_int_totalMemory
                0x0000b7b4                java_lang_Runtime_void_gc
 .text          0x0000b7b8      0x2ae darjeeling.a(java_lang_System.o)
                0x0000b7b8                java_lang_System_long_currentTimeMillis
                0x0000b7c0                java_lang_System_void_arraycopy_java_lang_Object_int_java_lang_Object_int_int
 .text          0x0000ba66      0x1b6 darjeeling.a(java_lang_Thread.o)
                0x0000ba66                java_lang_Thread_short__create
                0x0000ba96                java_lang_Thread_void__start_short
                0x0000bb44                java_lang_Thread_short__getStatus_short
                0x0000bb70                java_lang_Thread_void__setRunnable_short_java_lang_Runnable
                0x0000bb9e                java_lang_Thread_void_sleep_long
                0x0000bbf4                java_lang_Thread_short__getCurrentThreadId
                0x0000bc02                java_lang_Thread_int_activeCount
                0x0000bc18                java_lang_Thread_void_yield
 .text          0x0000bc1c      0x142 darjeeling.a(javax_darjeeling_Darjeeling.o)
                0x0000bc1c                javax_darjeeling_Darjeeling_void_assertTrue_int_boolean
                0x0000bc8a                javax_darjeeling_Darjeeling_void__print_java_lang_String
                0x0000bcee                javax_darjeeling_Darjeeling_int_getNodeId
                0x0000bcf8                javax_darjeeling_Darjeeling_int_getMemFree
                0x0000bd06                javax_darjeeling_Darjeeling_int_random
                0x0000bd12                javax_darjeeling_Darjeeling_short_getNrThreads
                0x0000bd1e                javax_darjeeling_Darjeeling_java_lang_Thread_getThread_short
 .text          0x0000bd5e      0x194 darjeeling.a(javax_darjeeling_vm_Infusion.o)
                0x0000bd5e                javax_darjeeling_vm_Infusion_short_getInfusionCount
                0x0000bd6a                javax_darjeeling_vm_Infusion_java_lang_Object__getInfusion_short
                0x0000bda2                javax_darjeeling_vm_Infusion_char____getName_java_lang_Object
                0x0000be2e                javax_darjeeling_vm_Infusion_short__getImportedInfusionCount_java_lang_Object
                0x0000be3c                javax_darjeeling_vm_Infusion_java_lang_Object__getImportedInfusion_java_lang_Object_short
                0x0000be8c                javax_darjeeling_vm_Infusion_void__unload_java_lang_Object
 .text          0x0000bef2      0x666 darjeeling.a(javax_wukong_wkpf_WKPF.o)
                0x0000bef2                javax_wukong_wkpf_WKPF_byte_getErrorCode
                0x0000befc                javax_wukong_wkpf_WKPF_void_registerWuClass_short_byte__
                0x0000bf30                javax_wukong_wkpf_WKPF_void_createWuObject_short_byte_javax_wukong_wkpf_VirtualWuObject
                0x0000bf68                javax_wukong_wkpf_WKPF_void_destroyWuObject_byte
                0x0000bf76                javax_wukong_wkpf_WKPF_short_getPropertyShort_javax_wukong_wkpf_VirtualWuObject_byte
                0x0000bfce                javax_wukong_wkpf_WKPF_void_setPropertyShort_javax_wukong_wkpf_VirtualWuObject_byte_short
                0x0000c024                javax_wukong_wkpf_WKPF_boolean_getPropertyBoolean_javax_wukong_wkpf_VirtualWuObject_byte
                0x0000c078                javax_wukong_wkpf_WKPF_void_setPropertyBoolean_javax_wukong_wkpf_VirtualWuObject_byte_boolean
                0x0000c0d4                javax_wukong_wkpf_WKPF_void_appLoadInitLinkTableAndComponentMap
                0x0000c0e2                javax_wukong_wkpf_WKPF_void_appInitCreateLocalObjectAndInitValues
                0x0000c0f0                javax_wukong_wkpf_WKPF_javax_wukong_wkpf_VirtualWuObject_select
                0x0000c0fe                javax_wukong_wkpf_WKPF_byte_getPortNumberForComponent_short
                0x0000c134                javax_wukong_wkpf_WKPF_boolean_isLocalComponent_short
                0x0000c190                javax_wukong_wkpf_WKPF_short_getMyNodeId
                0x0000c198                javax_wukong_wkpf_WKPF_boolean_updateMapping_short_short_byte_short_byte
                0x0000c1f4                javax_wukong_wkpf_WKPF_boolean_updateLinking_short_short_byte_short_byte_short_byte_short_byte
 .text          0x0000c558       0x24 darjeeling.a(routing_none.o)
                0x0000c558                addr_wkcomm_to_zwave
                0x0000c55a                addr_zwave_to_wkcomm
                0x0000c55e                routing_send
                0x0000c562                routing_send_raw
                0x0000c566                routing_handle_zwave_message
                0x0000c56c                routing_get_node_id
                0x0000c574                routing_init
                0x0000c578                routing_poll
 .text          0x0000c57c      0x268 darjeeling.a(wkcomm.o)
                0x0000c57c                wkcomm_send_raw
                0x0000c584                wkcomm_do_send
                0x0000c5f2                wkcomm_send
                0x0000c614                wkcomm_send_reply
                0x0000c62c                wkcomm_send_and_wait_for_reply
                0x0000c712                wkcomm_handle_message
                0x0000c7dc                wkcomm_poll
                0x0000c7e0                wkcomm_get_node_id
 .text          0x0000c7e4      0xbba darjeeling.a(wkpf_comm.o)
                0x0000c7e4                send_message
                0x0000c860                send_message_withou_reply
                0x0000c9cc                wkpf_call_adaptor
                0x0000ca00                wkpf_send_set_property_int16
                0x0000ca96                wkpf_send_set_property_boolean
                0x0000cb34                wkpf_send_set_property_refresh_rate
                0x0000cbc4                wkpf_send_set_linktable
                0x0000cc58                wkpf_send_set_linktable_no_token
                0x0000ccd0                wkpf_send_monitor_property_int16
                0x0000cd14                wkpf_send_monitor_property_boolean
                0x0000cd58                wkpf_send_monitor_property_refresh_rate
                0x0000cd9e                wkpf_send_request_property_init
                0x0000cdc6                wkpf_comm_handle_message
 .text          0x0000d39e       0xfa darjeeling.a(wkpf_config.o)
                0x0000d39e                wkpf_config_set_part_of_location_string
                0x0000d3be                wkpf_config_get_part_of_location_string
                0x0000d3f2                wkpf_config_set_feature_enabled
                0x0000d440                wkpf_config_get_feature_enabled
                0x0000d474                wkpf_config_get_master_node_id
                0x0000d47c                wkpf_config_set_master_node_id
                0x0000d486                wkpf_config_get_gid
                0x0000d48e                wkpf_config_set_gid
 .text          0x0000d498      0x126 darjeeling.a(wkpf_gc.o)
                0x0000d498                wkpf_markRootSet
                0x0000d4f8                wkpf_updatePointers
 .text          0x0000d5be     0x159e darjeeling.a(wkpf_links.o)
                0x0000d5be                wkpf_init_token
                0x0000d5fe                wkpf_generate_piggyback_token
                0x0000d672                wkpf_release_token
                0x0000d6c6                wkpf_find_token
                0x0000d6ec                wkpf_set_token
                0x0000d7be                wkpf_update_token_table
                0x0000d8e4                wkpf_update_token_table_with_piggyback
                0x0000d90e                wkpf_component_is_locked
                0x0000d92c                wkpf_get_component_id
                0x0000da46                wkpf_pull_property
                0x0000db8a                wkpf_propagate_property
                0x0000de5a                wkpf_propagate_dirty_properties
                0x0000ded2                wkpf_get_node_and_port_for_component
                0x0000df6e                wkpf_node_is_leader
                0x0000dfb8                wkpf_does_property_need_initialisation_pull
                0x0000e084                wkpf_load_component_to_wuobject_map
                0x0000e1b0                wkpf_load_links
                0x0000e1d0                wkpf_create_local_wuobjects_from_app_tables
                0x0000e38c                wkpf_process_initvalues_list
                0x0000e582                wkpf_update_initvalue_in_flash
                0x0000e6e2                wkpf_update_map_in_flash
                0x0000e848                wkpf_update_link_in_flash
                0x0000ea1a                wkpf_update_link
                0x0000ea7e                wkpf_propagate_link_change
 .text          0x0000eb5c      0x19a darjeeling.a(wkpf_main.o)
                0x0000eb5c                wkpf_initLinkTableAndComponentMap
                0x0000ec0c                wkpf_initLocalObjectAndInitValues
                0x0000ec80                wkpf_mainloop
                0x0000ecde                wkpf_picokong
 .text          0x0000ecf6      0x328 darjeeling.a(wkpf_properties.o)
                0x0000ecf6                wkpf_update_status_after_property_write
                0x0000ed08                wkpf_verify_property_access
                0x0000ed58                wkpf_read_property_int16
                0x0000ed9e                wkpf_write_property_int16
                0x0000edfc                wkpf_read_property_boolean
                0x0000ee3e                wkpf_write_property_boolean
                0x0000ee92                wkpf_read_property_refresh_rate
                0x0000eed8                wkpf_write_property_refresh_rate
                0x0000ef3e                wkpf_get_property_status
                0x0000ef5e                wkpf_property_needs_initialisation_push
                0x0000ef92                wkpf_property_status_is_dirty
                0x0000efc0                wkpf_propagating_dirty_property_failed
                0x0000f000                wkpf_propagating_dirty_property_succeeded
                0x0000f014                wkpf_set_property_status_needs_pull
 .text          0x0000f01e       0xd8 darjeeling.a(wkpf_virtual_wuclasses.o)
                0x0000f01e                wkpf_register_virtual_wuclass
 .text          0x0000f0f6       0xca darjeeling.a(wkpf_wuclasses.o)
                0x0000f0f6                wkpf_get_wuclass_by_id
                0x0000f128                wkpf_register_wuclass
                0x0000f172                wkpf_get_wuclass_by_index
                0x0000f1a4                wkpf_get_number_of_wuclasses
 .text          0x0000f1c0      0x6f8 darjeeling.a(wkpf_wuobjects.o)
                0x0000f1c0                wkpf_get_size_of_all_properties
                0x0000f1f2                wkpf_remove_wuobject
                0x0000f252                wkpf_get_wuobject_by_port
                0x0000f280                wkpf_get_wuobject_by_index
                0x0000f2b0                wkpf_get_wuobject_by_java_instance_reference
                0x0000f2e2                wkpf_get_number_of_wuobjects
                0x0000f2fe                wkpf_set_need_to_call_update_for_wuobject
                0x0000f320                wkpf_schedule_next_update_for_wuobject
                0x0000f404                wkpf_get_next_wuobject_to_update
                0x0000f5be                wkpf_get_next_dirty_property
                0x0000f6d8                wkpf_get_property
                0x0000f708                wkpf_set_request_property_init_where_necessary
                0x0000f756                wkpf_create_wuobject
                0x0000f89c                wkpf_get_private_wuobject_data
 .text          0x0000f8b8       0x76 darjeeling.a(wkreprog.o)
                0x0000f8b8                wkreprog_open
 .text          0x0000f92e      0x1ba darjeeling.a(wkreprog_comm.o)
                0x0000f92e                wkreprog_comm_handle_message
 .text          0x0000fae8      0x1f4 darjeeling.a(wkreprog_impl.o)
                0x0000fae8                wkreprog_impl_get_page_size
                0x0000faee                wkreprog_impl_open
                0x0000fb42                wkreprog_impl_reboot
                0x0000fb50                wkreprog_impl_write
                0x0000fc2a                wkreprog_impl_close
 .text          0x0000fcdc      0x19c darjeeling.a(wuclass_LED_update.o)
                0x0000fcdc                wuclass_led_setup
                0x0000fcfa                set_led
                0x0000fd22                wuclass_led_update
 .text          0x0000fe78      0x162 darjeeling.a(wuclass_ir_sensor_update.o)
                0x0000fe78                wuclass_ir_sensor_setup
                0x0000fed4                wuclass_ir_sensor_update
 .text          0x0000ffda      0x254 darjeeling.a(wuclass_magnetic_sensor_update.o)
                0x0000ffda                wuclass_magnetic_sensor_setup
                0x00010152                wuclass_magnetic_sensor_update
 .text          0x0001022e       0xc8 darjeeling.a(wuclass_or_gate_update.o)
                0x0001022e                wuclass_or_gate_setup
                0x00010230                wuclass_or_gate_update
 .text          0x000102f6       0xf8 darjeeling.a(wuclass_pir_sensor.o)
                0x000102f6                wuclass_pir_sensor_setup
                0x00010366                wuclass_pir_sensor_update
 .text          0x000103ee      0x422 darjeeling.a(wuclass_ultrasound_sensor_update.o)
                0x000103ee                getPulseWidth
                0x0001047e                wuclass_ultrasound_sensor_setup
                0x00010480                wuclass_ultrasound_sensor_update
 .text          0x00010810      0xcfe darjeeling.a(radio_zwave.o)
                0x00010810                radio_zwave_get_node_id
                0x00010816                Zwave_receive
                0x00010aac                radio_zwave_reset
                0x00010b26                radio_zwave_set_node_info
                0x00010c26                radio_zwave_learn
                0x00010dd0                radio_zwave_poll
                0x00010edc                SerialAPI_request
                0x00010fc2                radio_zwave_init
                0x00011342                ZW_sendData
                0x00011424                radio_zwave_send
                0x0001142c                ZW_sendDataRaw
                0x00011506                radio_zwave_send_raw
 .text          0x0001150e      0x358 darjeeling.a(radio_zwave_platform_dependent.o)
                0x0001150e                radio_zwave_platform_dependent_init
                0x0001154e                radio_zwave_platform_dependent_poll
 .text          0x00011866      0x3d8 darjeeling.a(uart.o)
                0x00011866                __vector_25
                0x000118ba                __vector_36
                0x0001190e                __vector_51
                0x00011962                __vector_54
                0x000119b6                uart_close
                0x000119ea                uart_inituart
                0x00011af8                uart_write_byte
                0x00011b20                uart_available
                0x00011c16                uart_read_byte
 .text          0x00011c3e        0x0 /usr/local/CrossPack-AVR-20131216/lib/gcc/avr/4.8.1/avr6/libgcc.a(_mulsi3.o)
 .text          0x00011c3e        0x0 /usr/local/CrossPack-AVR-20131216/lib/gcc/avr/4.8.1/avr6/libgcc.a(_udivmodhi4.o)
 .text          0x00011c3e        0x0 /usr/local/CrossPack-AVR-20131216/lib/gcc/avr/4.8.1/avr6/libgcc.a(_udivmodsi4.o)
 .text          0x00011c3e        0x0 /usr/local/CrossPack-AVR-20131216/lib/gcc/avr/4.8.1/avr6/libgcc.a(_divmodsi4.o)
 .text          0x00011c3e        0x0 /usr/local/CrossPack-AVR-20131216/lib/gcc/avr/4.8.1/avr6/libgcc.a(_negsi2.o)
 .text          0x00011c3e        0x0 /usr/local/CrossPack-AVR-20131216/lib/gcc/avr/4.8.1/avr6/libgcc.a(_exit.o)
 .text          0x00011c3e        0x0 /usr/local/CrossPack-AVR-20131216/lib/gcc/avr/4.8.1/avr6/libgcc.a(_tablejump.o)
 .text          0x00011c3e        0x0 /usr/local/CrossPack-AVR-20131216/lib/gcc/avr/4.8.1/avr6/libgcc.a(_copy_data.o)
 .text          0x00011c3e        0x0 /usr/local/CrossPack-AVR-20131216/lib/gcc/avr/4.8.1/avr6/libgcc.a(_clear_bss.o)
 .text          0x00011c3e        0x0 /usr/local/CrossPack-AVR-20131216/lib/gcc/avr/4.8.1/avr6/libgcc.a(_muluhisi3.o)
 .text          0x00011c3e        0x0 /usr/local/CrossPack-AVR-20131216/lib/gcc/avr/4.8.1/avr6/libgcc.a(_muldi3.o)
 .text          0x00011c3e        0x0 /usr/local/CrossPack-AVR-20131216/lib/gcc/avr/4.8.1/avr6/libgcc.a(_muldi3_6.o)
 .text          0x00011c3e        0x0 /usr/local/CrossPack-AVR-20131216/lib/gcc/avr/4.8.1/avr6/libgcc.a(_divdi3.o)
 .text          0x00011c3e        0x0 /usr/local/CrossPack-AVR-20131216/lib/gcc/avr/4.8.1/avr6/libgcc.a(_udivdi3.o)
 .text          0x00011c3e        0x0 /usr/local/CrossPack-AVR-20131216/lib/gcc/avr/4.8.1/avr6/libgcc.a(_udivmod64.o)
 .text          0x00011c3e        0x0 /usr/local/CrossPack-AVR-20131216/lib/gcc/avr/4.8.1/avr6/libgcc.a(_negdi2.o)
 .text          0x00011c3e        0x0 /usr/local/CrossPack-AVR-20131216/lib/gcc/avr/4.8.1/avr6/libgcc.a(_prologue.o)
 .text          0x00011c3e        0x0 /usr/local/CrossPack-AVR-20131216/lib/gcc/avr/4.8.1/avr6/libgcc.a(_epilogue.o)
 .text          0x00011c3e        0x0 /usr/local/CrossPack-AVR-20131216/lib/gcc/avr/4.8.1/avr6/libgcc.a(_ashldi3.o)
 .text          0x00011c3e        0x0 /usr/local/CrossPack-AVR-20131216/lib/gcc/avr/4.8.1/avr6/libgcc.a(_ashrdi3.o)
 .text          0x00011c3e        0x0 /usr/local/CrossPack-AVR-20131216/lib/gcc/avr/4.8.1/avr6/libgcc.a(_adddi3.o)
 .text          0x00011c3e        0x0 /usr/local/CrossPack-AVR-20131216/lib/gcc/avr/4.8.1/avr6/libgcc.a(_subdi3.o)
 .text          0x00011c3e        0x0 /usr/local/CrossPack-AVR-20131216/lib/gcc/avr/4.8.1/avr6/libgcc.a(_cmpdi2.o)
 .text          0x00011c3e        0x0 /usr/local/CrossPack-AVR-20131216/lib/gcc/avr/4.8.1/avr6/libgcc.a(_cmpdi2_s8.o)
 .text          0x00011c3e        0x0 /usr/local/CrossPack-AVR-20131216/lib/gcc/avr/4.8.1/avr6/libgcc.a(_umulhisi3.o)
 .text          0x00011c3e        0x0 /usr/local/CrossPack-AVR-20131216/lib/gcc/avr/4.8.1/../../../../avr/lib/avr6/libm.a(addsf3.o)
 .text          0x00011c3e        0x0 /usr/local/CrossPack-AVR-20131216/lib/gcc/avr/4.8.1/../../../../avr/lib/avr6/libm.a(addsf3x.o)
 .text          0x00011c3e        0x0 /usr/local/CrossPack-AVR-20131216/lib/gcc/avr/4.8.1/../../../../avr/lib/avr6/libm.a(divsf3.o)
 .text          0x00011c3e        0x0 /usr/local/CrossPack-AVR-20131216/lib/gcc/avr/4.8.1/../../../../avr/lib/avr6/libm.a(divsf3x.o)
 .text          0x00011c3e        0x0 /usr/local/CrossPack-AVR-20131216/lib/gcc/avr/4.8.1/../../../../avr/lib/avr6/libm.a(fixsfsi.o)
 .text          0x00011c3e        0x0 /usr/local/CrossPack-AVR-20131216/lib/gcc/avr/4.8.1/../../../../avr/lib/avr6/libm.a(fixunssfsi.o)
 .text          0x00011c3e        0x0 /usr/local/CrossPack-AVR-20131216/lib/gcc/avr/4.8.1/../../../../avr/lib/avr6/libm.a(floatsisf.o)
 .text          0x00011c3e        0x0 /usr/local/CrossPack-AVR-20131216/lib/gcc/avr/4.8.1/../../../../avr/lib/avr6/libm.a(fp_inf.o)
 .text          0x00011c3e        0x0 /usr/local/CrossPack-AVR-20131216/lib/gcc/avr/4.8.1/../../../../avr/lib/avr6/libm.a(fp_nan.o)
 .text          0x00011c3e        0x0 /usr/local/CrossPack-AVR-20131216/lib/gcc/avr/4.8.1/../../../../avr/lib/avr6/libm.a(fp_pscA.o)
 .text          0x00011c3e        0x0 /usr/local/CrossPack-AVR-20131216/lib/gcc/avr/4.8.1/../../../../avr/lib/avr6/libm.a(fp_pscB.o)
 .text          0x00011c3e        0x0 /usr/local/CrossPack-AVR-20131216/lib/gcc/avr/4.8.1/../../../../avr/lib/avr6/libm.a(fp_round.o)
 .text          0x00011c3e        0x0 /usr/local/CrossPack-AVR-20131216/lib/gcc/avr/4.8.1/../../../../avr/lib/avr6/libm.a(fp_split3.o)
 .text          0x00011c3e        0x0 /usr/local/CrossPack-AVR-20131216/lib/gcc/avr/4.8.1/../../../../avr/lib/avr6/libm.a(fp_zero.o)
 .text          0x00011c3e        0x0 /usr/local/CrossPack-AVR-20131216/lib/gcc/avr/4.8.1/../../../../avr/lib/avr6/libm.a(mulsf3.o)
 .text          0x00011c3e        0x0 /usr/local/CrossPack-AVR-20131216/lib/gcc/avr/4.8.1/../../../../avr/lib/avr6/libm.a(mulsf3x.o)
 .text          0x00011c3e        0x0 /usr/local/CrossPack-AVR-20131216/lib/gcc/avr/4.8.1/../../../../avr/lib/avr6/libm.a(pow.o)
 .text          0x00011c3e        0x0 /usr/local/CrossPack-AVR-20131216/lib/gcc/avr/4.8.1/../../../../avr/lib/avr6/libm.a(exp.o)
 .text          0x00011c3e        0x0 /usr/local/CrossPack-AVR-20131216/lib/gcc/avr/4.8.1/../../../../avr/lib/avr6/libm.a(fp_powser.o)
 .text          0x00011c3e        0x0 /usr/local/CrossPack-AVR-20131216/lib/gcc/avr/4.8.1/../../../../avr/lib/avr6/libm.a(inverse.o)
 .text          0x00011c3e        0x0 /usr/local/CrossPack-AVR-20131216/lib/gcc/avr/4.8.1/../../../../avr/lib/avr6/libm.a(ldexp.o)
 .text          0x00011c3e        0x0 /usr/local/CrossPack-AVR-20131216/lib/gcc/avr/4.8.1/../../../../avr/lib/avr6/libm.a(log.o)
 .text          0x00011c3e        0x0 /usr/local/CrossPack-AVR-20131216/lib/gcc/avr/4.8.1/../../../../avr/lib/avr6/libm.a(modf.o)
 .text          0x00011c3e        0x0 /usr/local/CrossPack-AVR-20131216/lib/gcc/avr/4.8.1/../../../../avr/lib/avr6/libm.a(fp_mpack.o)
 .text          0x00011c3e        0x0 /usr/local/CrossPack-AVR-20131216/lib/gcc/avr/4.8.1/../../../../avr/lib/avr6/libc.a(memcpy.o)
 .text          0x00011c3e        0x0 /usr/local/CrossPack-AVR-20131216/lib/gcc/avr/4.8.1/../../../../avr/lib/avr6/libc.a(memmove.o)
 .text          0x00011c3e        0x0 /usr/local/CrossPack-AVR-20131216/lib/gcc/avr/4.8.1/../../../../avr/lib/avr6/libc.a(memset.o)
 .text          0x00011c3e        0x0 /usr/local/CrossPack-AVR-20131216/lib/gcc/avr/4.8.1/../../../../avr/lib/avr6/libc.a(snprintf.o)
 .text          0x00011c3e        0x0 /usr/local/CrossPack-AVR-20131216/lib/gcc/avr/4.8.1/../../../../avr/lib/avr6/libc.a(vsnprintf.o)
 .text          0x00011c3e        0x0 /usr/local/CrossPack-AVR-20131216/lib/gcc/avr/4.8.1/../../../../avr/lib/avr6/libc.a(vfprintf_std.o)
 .text          0x00011c3e        0x0 /usr/local/CrossPack-AVR-20131216/lib/gcc/avr/4.8.1/../../../../avr/lib/avr6/libc.a(eerd_block_atmega2560.o)
 .text          0x00011c3e        0x0 /usr/local/CrossPack-AVR-20131216/lib/gcc/avr/4.8.1/../../../../avr/lib/avr6/libc.a(eerd_byte_atmega2560.o)
 .text          0x00011c3e        0x0 /usr/local/CrossPack-AVR-20131216/lib/gcc/avr/4.8.1/../../../../avr/lib/avr6/libc.a(eerd_word_atmega2560.o)
 .text          0x00011c3e        0x0 /usr/local/CrossPack-AVR-20131216/lib/gcc/avr/4.8.1/../../../../avr/lib/avr6/libc.a(eeupd_block_atmega2560.o)
 .text          0x00011c3e        0x0 /usr/local/CrossPack-AVR-20131216/lib/gcc/avr/4.8.1/../../../../avr/lib/avr6/libc.a(eeupd_byte_atmega2560.o)
 .text          0x00011c3e        0x0 /usr/local/CrossPack-AVR-20131216/lib/gcc/avr/4.8.1/../../../../avr/lib/avr6/libc.a(eeupd_word_atmega2560.o)
 .text          0x00011c3e        0x0 /usr/local/CrossPack-AVR-20131216/lib/gcc/avr/4.8.1/../../../../avr/lib/avr6/libc.a(strnlen_P.o)
 .text          0x00011c3e        0x0 /usr/local/CrossPack-AVR-20131216/lib/gcc/avr/4.8.1/../../../../avr/lib/avr6/libc.a(strnlen.o)
 .text          0x00011c3e        0x0 /usr/local/CrossPack-AVR-20131216/lib/gcc/avr/4.8.1/../../../../avr/lib/avr6/libc.a(fputc.o)
 .text          0x00011c3e        0x0 /usr/local/CrossPack-AVR-20131216/lib/gcc/avr/4.8.1/../../../../avr/lib/avr6/libc.a(ultoa_invert.o)
                0x00011c3e                . = ALIGN (0x2)
 *(.text.*)
 .text.startup  0x00011c3e       0x4e darjeeling.a(main.o)
                0x00011c3e                main
 .text.libgcc.mul
                0x00011c8c       0x20 /usr/local/CrossPack-AVR-20131216/lib/gcc/avr/4.8.1/avr6/libgcc.a(_mulsi3.o)
                0x00011c8c                __mulsi3
 .text.libgcc.div
                0x00011cac        0x0 /usr/local/CrossPack-AVR-20131216/lib/gcc/avr/4.8.1/avr6/libgcc.a(_mulsi3.o)
 .text.libgcc   0x00011cac        0x0 /usr/local/CrossPack-AVR-20131216/lib/gcc/avr/4.8.1/avr6/libgcc.a(_mulsi3.o)
 .text.libgcc.prologue
                0x00011cac        0x0 /usr/local/CrossPack-AVR-20131216/lib/gcc/avr/4.8.1/avr6/libgcc.a(_mulsi3.o)
 .text.libgcc.builtins
                0x00011cac        0x0 /usr/local/CrossPack-AVR-20131216/lib/gcc/avr/4.8.1/avr6/libgcc.a(_mulsi3.o)
 .text.libgcc.fmul
                0x00011cac        0x0 /usr/local/CrossPack-AVR-20131216/lib/gcc/avr/4.8.1/avr6/libgcc.a(_mulsi3.o)
 .text.libgcc.fixed
                0x00011cac        0x0 /usr/local/CrossPack-AVR-20131216/lib/gcc/avr/4.8.1/avr6/libgcc.a(_mulsi3.o)
 .text.libgcc.mul
                0x00011cac        0x0 /usr/local/CrossPack-AVR-20131216/lib/gcc/avr/4.8.1/avr6/libgcc.a(_udivmodhi4.o)
 .text.libgcc.div
                0x00011cac       0x28 /usr/local/CrossPack-AVR-20131216/lib/gcc/avr/4.8.1/avr6/libgcc.a(_udivmodhi4.o)
                0x00011cac                __udivmodhi4
 .text.libgcc   0x00011cd4        0x0 /usr/local/CrossPack-AVR-20131216/lib/gcc/avr/4.8.1/avr6/libgcc.a(_udivmodhi4.o)
 .text.libgcc.prologue
                0x00011cd4        0x0 /usr/local/CrossPack-AVR-20131216/lib/gcc/avr/4.8.1/avr6/libgcc.a(_udivmodhi4.o)
 .text.libgcc.builtins
                0x00011cd4        0x0 /usr/local/CrossPack-AVR-20131216/lib/gcc/avr/4.8.1/avr6/libgcc.a(_udivmodhi4.o)
 .text.libgcc.fmul
                0x00011cd4        0x0 /usr/local/CrossPack-AVR-20131216/lib/gcc/avr/4.8.1/avr6/libgcc.a(_udivmodhi4.o)
 .text.libgcc.fixed
                0x00011cd4        0x0 /usr/local/CrossPack-AVR-20131216/lib/gcc/avr/4.8.1/avr6/libgcc.a(_udivmodhi4.o)
 .text.libgcc.mul
                0x00011cd4        0x0 /usr/local/CrossPack-AVR-20131216/lib/gcc/avr/4.8.1/avr6/libgcc.a(_udivmodsi4.o)
 .text.libgcc.div
                0x00011cd4       0x44 /usr/local/CrossPack-AVR-20131216/lib/gcc/avr/4.8.1/avr6/libgcc.a(_udivmodsi4.o)
                0x00011cd4                __udivmodsi4
 .text.libgcc   0x00011d18        0x0 /usr/local/CrossPack-AVR-20131216/lib/gcc/avr/4.8.1/avr6/libgcc.a(_udivmodsi4.o)
 .text.libgcc.prologue
                0x00011d18        0x0 /usr/local/CrossPack-AVR-20131216/lib/gcc/avr/4.8.1/avr6/libgcc.a(_udivmodsi4.o)
 .text.libgcc.builtins
                0x00011d18        0x0 /usr/local/CrossPack-AVR-20131216/lib/gcc/avr/4.8.1/avr6/libgcc.a(_udivmodsi4.o)
 .text.libgcc.fmul
                0x00011d18        0x0 /usr/local/CrossPack-AVR-20131216/lib/gcc/avr/4.8.1/avr6/libgcc.a(_udivmodsi4.o)
 .text.libgcc.fixed
                0x00011d18        0x0 /usr/local/CrossPack-AVR-20131216/lib/gcc/avr/4.8.1/avr6/libgcc.a(_udivmodsi4.o)
 .text.libgcc.mul
                0x00011d18        0x0 /usr/local/CrossPack-AVR-20131216/lib/gcc/avr/4.8.1/avr6/libgcc.a(_divmodsi4.o)
 .text.libgcc.div
                0x00011d18       0x2e /usr/local/CrossPack-AVR-20131216/lib/gcc/avr/4.8.1/avr6/libgcc.a(_divmodsi4.o)
                0x00011d18                __divmodsi4
 .text.libgcc   0x00011d46        0x0 /usr/local/CrossPack-AVR-20131216/lib/gcc/avr/4.8.1/avr6/libgcc.a(_divmodsi4.o)
 .text.libgcc.prologue
                0x00011d46        0x0 /usr/local/CrossPack-AVR-20131216/lib/gcc/avr/4.8.1/avr6/libgcc.a(_divmodsi4.o)
 .text.libgcc.builtins
                0x00011d46        0x0 /usr/local/CrossPack-AVR-20131216/lib/gcc/avr/4.8.1/avr6/libgcc.a(_divmodsi4.o)
 .text.libgcc.fmul
                0x00011d46        0x0 /usr/local/CrossPack-AVR-20131216/lib/gcc/avr/4.8.1/avr6/libgcc.a(_divmodsi4.o)
 .text.libgcc.fixed
                0x00011d46        0x0 /usr/local/CrossPack-AVR-20131216/lib/gcc/avr/4.8.1/avr6/libgcc.a(_divmodsi4.o)
 .text.libgcc.mul
                0x00011d46        0x0 /usr/local/CrossPack-AVR-20131216/lib/gcc/avr/4.8.1/avr6/libgcc.a(_negsi2.o)
 .text.libgcc.div
                0x00011d46       0x10 /usr/local/CrossPack-AVR-20131216/lib/gcc/avr/4.8.1/avr6/libgcc.a(_negsi2.o)
                0x00011d46                __negsi2
 .text.libgcc   0x00011d56        0x0 /usr/local/CrossPack-AVR-20131216/lib/gcc/avr/4.8.1/avr6/libgcc.a(_negsi2.o)
 .text.libgcc.prologue
                0x00011d56        0x0 /usr/local/CrossPack-AVR-20131216/lib/gcc/avr/4.8.1/avr6/libgcc.a(_negsi2.o)
 .text.libgcc.builtins
                0x00011d56        0x0 /usr/local/CrossPack-AVR-20131216/lib/gcc/avr/4.8.1/avr6/libgcc.a(_negsi2.o)
 .text.libgcc.fmul
                0x00011d56        0x0 /usr/local/CrossPack-AVR-20131216/lib/gcc/avr/4.8.1/avr6/libgcc.a(_negsi2.o)
 .text.libgcc.fixed
                0x00011d56        0x0 /usr/local/CrossPack-AVR-20131216/lib/gcc/avr/4.8.1/avr6/libgcc.a(_negsi2.o)
 .text.libgcc.mul
                0x00011d56        0x0 /usr/local/CrossPack-AVR-20131216/lib/gcc/avr/4.8.1/avr6/libgcc.a(_exit.o)
 .text.libgcc.div
                0x00011d56        0x0 /usr/local/CrossPack-AVR-20131216/lib/gcc/avr/4.8.1/avr6/libgcc.a(_exit.o)
 .text.libgcc   0x00011d56        0x0 /usr/local/CrossPack-AVR-20131216/lib/gcc/avr/4.8.1/avr6/libgcc.a(_exit.o)
 .text.libgcc.prologue
                0x00011d56        0x0 /usr/local/CrossPack-AVR-20131216/lib/gcc/avr/4.8.1/avr6/libgcc.a(_exit.o)
 .text.libgcc.builtins
                0x00011d56        0x0 /usr/local/CrossPack-AVR-20131216/lib/gcc/avr/4.8.1/avr6/libgcc.a(_exit.o)
 .text.libgcc.fmul
                0x00011d56        0x0 /usr/local/CrossPack-AVR-20131216/lib/gcc/avr/4.8.1/avr6/libgcc.a(_exit.o)
 .text.libgcc.fixed
                0x00011d56        0x0 /usr/local/CrossPack-AVR-20131216/lib/gcc/avr/4.8.1/avr6/libgcc.a(_exit.o)
 .text.libgcc.mul
                0x00011d56        0x0 /usr/local/CrossPack-AVR-20131216/lib/gcc/avr/4.8.1/avr6/libgcc.a(_tablejump.o)
 .text.libgcc.div
                0x00011d56        0x0 /usr/local/CrossPack-AVR-20131216/lib/gcc/avr/4.8.1/avr6/libgcc.a(_tablejump.o)
 .text.libgcc   0x00011d56        0xc /usr/local/CrossPack-AVR-20131216/lib/gcc/avr/4.8.1/avr6/libgcc.a(_tablejump.o)
                0x00011d56                __tablejump2__
                0x00011d5a                __tablejump__
 .text.libgcc.prologue
                0x00011d62        0x0 /usr/local/CrossPack-AVR-20131216/lib/gcc/avr/4.8.1/avr6/libgcc.a(_tablejump.o)
 .text.libgcc.builtins
                0x00011d62        0x0 /usr/local/CrossPack-AVR-20131216/lib/gcc/avr/4.8.1/avr6/libgcc.a(_tablejump.o)
 .text.libgcc.fmul
                0x00011d62        0x0 /usr/local/CrossPack-AVR-20131216/lib/gcc/avr/4.8.1/avr6/libgcc.a(_tablejump.o)
 .text.libgcc.fixed
                0x00011d62        0x0 /usr/local/CrossPack-AVR-20131216/lib/gcc/avr/4.8.1/avr6/libgcc.a(_tablejump.o)
 .text.libgcc.mul
                0x00011d62        0x0 /usr/local/CrossPack-AVR-20131216/lib/gcc/avr/4.8.1/avr6/libgcc.a(_copy_data.o)
 .text.libgcc.div
                0x00011d62        0x0 /usr/local/CrossPack-AVR-20131216/lib/gcc/avr/4.8.1/avr6/libgcc.a(_copy_data.o)
 .text.libgcc   0x00011d62        0x0 /usr/local/CrossPack-AVR-20131216/lib/gcc/avr/4.8.1/avr6/libgcc.a(_copy_data.o)
 .text.libgcc.prologue
                0x00011d62        0x0 /usr/local/CrossPack-AVR-20131216/lib/gcc/avr/4.8.1/avr6/libgcc.a(_copy_data.o)
 .text.libgcc.builtins
                0x00011d62        0x0 /usr/local/CrossPack-AVR-20131216/lib/gcc/avr/4.8.1/avr6/libgcc.a(_copy_data.o)
 .text.libgcc.fmul
                0x00011d62        0x0 /usr/local/CrossPack-AVR-20131216/lib/gcc/avr/4.8.1/avr6/libgcc.a(_copy_data.o)
 .text.libgcc.fixed
                0x00011d62        0x0 /usr/local/CrossPack-AVR-20131216/lib/gcc/avr/4.8.1/avr6/libgcc.a(_copy_data.o)
 .text.libgcc.mul
                0x00011d62        0x0 /usr/local/CrossPack-AVR-20131216/lib/gcc/avr/4.8.1/avr6/libgcc.a(_clear_bss.o)
 .text.libgcc.div
                0x00011d62        0x0 /usr/local/CrossPack-AVR-20131216/lib/gcc/avr/4.8.1/avr6/libgcc.a(_clear_bss.o)
 .text.libgcc   0x00011d62        0x0 /usr/local/CrossPack-AVR-20131216/lib/gcc/avr/4.8.1/avr6/libgcc.a(_clear_bss.o)
 .text.libgcc.prologue
                0x00011d62        0x0 /usr/local/CrossPack-AVR-20131216/lib/gcc/avr/4.8.1/avr6/libgcc.a(_clear_bss.o)
 .text.libgcc.builtins
                0x00011d62        0x0 /usr/local/CrossPack-AVR-20131216/lib/gcc/avr/4.8.1/avr6/libgcc.a(_clear_bss.o)
 .text.libgcc.fmul
                0x00011d62        0x0 /usr/local/CrossPack-AVR-20131216/lib/gcc/avr/4.8.1/avr6/libgcc.a(_clear_bss.o)
 .text.libgcc.fixed
                0x00011d62        0x0 /usr/local/CrossPack-AVR-20131216/lib/gcc/avr/4.8.1/avr6/libgcc.a(_clear_bss.o)
 .text.libgcc.mul
                0x00011d62       0x16 /usr/local/CrossPack-AVR-20131216/lib/gcc/avr/4.8.1/avr6/libgcc.a(_muluhisi3.o)
                0x00011d62                __muluhisi3
 .text.libgcc.div
                0x00011d78        0x0 /usr/local/CrossPack-AVR-20131216/lib/gcc/avr/4.8.1/avr6/libgcc.a(_muluhisi3.o)
 .text.libgcc   0x00011d78        0x0 /usr/local/CrossPack-AVR-20131216/lib/gcc/avr/4.8.1/avr6/libgcc.a(_muluhisi3.o)
 .text.libgcc.prologue
                0x00011d78        0x0 /usr/local/CrossPack-AVR-20131216/lib/gcc/avr/4.8.1/avr6/libgcc.a(_muluhisi3.o)
 .text.libgcc.builtins
                0x00011d78        0x0 /usr/local/CrossPack-AVR-20131216/lib/gcc/avr/4.8.1/avr6/libgcc.a(_muluhisi3.o)
 .text.libgcc.fmul
                0x00011d78        0x0 /usr/local/CrossPack-AVR-20131216/lib/gcc/avr/4.8.1/avr6/libgcc.a(_muluhisi3.o)
 .text.libgcc.fixed
                0x00011d78        0x0 /usr/local/CrossPack-AVR-20131216/lib/gcc/avr/4.8.1/avr6/libgcc.a(_muluhisi3.o)
 .text.libgcc.mul
                0x00011d78       0xa0 /usr/local/CrossPack-AVR-20131216/lib/gcc/avr/4.8.1/avr6/libgcc.a(_muldi3.o)
                0x00011d78                __muldi3
 .text.libgcc.div
                0x00011e18        0x0 /usr/local/CrossPack-AVR-20131216/lib/gcc/avr/4.8.1/avr6/libgcc.a(_muldi3.o)
 .text.libgcc   0x00011e18        0x0 /usr/local/CrossPack-AVR-20131216/lib/gcc/avr/4.8.1/avr6/libgcc.a(_muldi3.o)
 .text.libgcc.prologue
                0x00011e18        0x0 /usr/local/CrossPack-AVR-20131216/lib/gcc/avr/4.8.1/avr6/libgcc.a(_muldi3.o)
 .text.libgcc.builtins
                0x00011e18        0x0 /usr/local/CrossPack-AVR-20131216/lib/gcc/avr/4.8.1/avr6/libgcc.a(_muldi3.o)
 .text.libgcc.fmul
                0x00011e18        0x0 /usr/local/CrossPack-AVR-20131216/lib/gcc/avr/4.8.1/avr6/libgcc.a(_muldi3.o)
 .text.libgcc.fixed
                0x00011e18        0x0 /usr/local/CrossPack-AVR-20131216/lib/gcc/avr/4.8.1/avr6/libgcc.a(_muldi3.o)
 .text.libgcc.mul
                0x00011e18       0x12 /usr/local/CrossPack-AVR-20131216/lib/gcc/avr/4.8.1/avr6/libgcc.a(_muldi3_6.o)
                0x00011e18                __muldi3_6
 .text.libgcc.div
                0x00011e2a        0x0 /usr/local/CrossPack-AVR-20131216/lib/gcc/avr/4.8.1/avr6/libgcc.a(_muldi3_6.o)
 .text.libgcc   0x00011e2a        0x0 /usr/local/CrossPack-AVR-20131216/lib/gcc/avr/4.8.1/avr6/libgcc.a(_muldi3_6.o)
 .text.libgcc.prologue
                0x00011e2a        0x0 /usr/local/CrossPack-AVR-20131216/lib/gcc/avr/4.8.1/avr6/libgcc.a(_muldi3_6.o)
 .text.libgcc.builtins
                0x00011e2a        0x0 /usr/local/CrossPack-AVR-20131216/lib/gcc/avr/4.8.1/avr6/libgcc.a(_muldi3_6.o)
 .text.libgcc.fmul
                0x00011e2a        0x0 /usr/local/CrossPack-AVR-20131216/lib/gcc/avr/4.8.1/avr6/libgcc.a(_muldi3_6.o)
 .text.libgcc.fixed
                0x00011e2a        0x0 /usr/local/CrossPack-AVR-20131216/lib/gcc/avr/4.8.1/avr6/libgcc.a(_muldi3_6.o)
 .text.libgcc.mul
                0x00011e2a        0x0 /usr/local/CrossPack-AVR-20131216/lib/gcc/avr/4.8.1/avr6/libgcc.a(_divdi3.o)
 .text.libgcc.div
                0x00011e2a       0x62 /usr/local/CrossPack-AVR-20131216/lib/gcc/avr/4.8.1/avr6/libgcc.a(_divdi3.o)
                0x00011e2a                __moddi3
                0x00011e2e                __divdi3
                0x00011e30                __divdi3_moddi3
 .text.libgcc   0x00011e8c        0x0 /usr/local/CrossPack-AVR-20131216/lib/gcc/avr/4.8.1/avr6/libgcc.a(_divdi3.o)
 .text.libgcc.prologue
                0x00011e8c        0x0 /usr/local/CrossPack-AVR-20131216/lib/gcc/avr/4.8.1/avr6/libgcc.a(_divdi3.o)
 .text.libgcc.builtins
                0x00011e8c        0x0 /usr/local/CrossPack-AVR-20131216/lib/gcc/avr/4.8.1/avr6/libgcc.a(_divdi3.o)
 .text.libgcc.fmul
                0x00011e8c        0x0 /usr/local/CrossPack-AVR-20131216/lib/gcc/avr/4.8.1/avr6/libgcc.a(_divdi3.o)
 .text.libgcc.fixed
                0x00011e8c        0x0 /usr/local/CrossPack-AVR-20131216/lib/gcc/avr/4.8.1/avr6/libgcc.a(_divdi3.o)
 .text.libgcc.mul
                0x00011e8c        0x0 /usr/local/CrossPack-AVR-20131216/lib/gcc/avr/4.8.1/avr6/libgcc.a(_udivdi3.o)
 .text.libgcc.div
                0x00011e8c       0x1c /usr/local/CrossPack-AVR-20131216/lib/gcc/avr/4.8.1/avr6/libgcc.a(_udivdi3.o)
                0x00011e8c                __umoddi3
                0x00011e90                __udivdi3
                0x00011e92                __udivdi3_umoddi3
 .text.libgcc   0x00011ea8        0x0 /usr/local/CrossPack-AVR-20131216/lib/gcc/avr/4.8.1/avr6/libgcc.a(_udivdi3.o)
 .text.libgcc.prologue
                0x00011ea8        0x0 /usr/local/CrossPack-AVR-20131216/lib/gcc/avr/4.8.1/avr6/libgcc.a(_udivdi3.o)
 .text.libgcc.builtins
                0x00011ea8        0x0 /usr/local/CrossPack-AVR-20131216/lib/gcc/avr/4.8.1/avr6/libgcc.a(_udivdi3.o)
 .text.libgcc.fmul
                0x00011ea8        0x0 /usr/local/CrossPack-AVR-20131216/lib/gcc/avr/4.8.1/avr6/libgcc.a(_udivdi3.o)
 .text.libgcc.fixed
                0x00011ea8        0x0 /usr/local/CrossPack-AVR-20131216/lib/gcc/avr/4.8.1/avr6/libgcc.a(_udivdi3.o)
 .text.libgcc.mul
                0x00011ea8        0x0 /usr/local/CrossPack-AVR-20131216/lib/gcc/avr/4.8.1/avr6/libgcc.a(_udivmod64.o)
 .text.libgcc.div
                0x00011ea8       0xa2 /usr/local/CrossPack-AVR-20131216/lib/gcc/avr/4.8.1/avr6/libgcc.a(_udivmod64.o)
                0x00011ea8                __udivmod64
 .text.libgcc   0x00011f4a        0x0 /usr/local/CrossPack-AVR-20131216/lib/gcc/avr/4.8.1/avr6/libgcc.a(_udivmod64.o)
 .text.libgcc.prologue
                0x00011f4a        0x0 /usr/local/CrossPack-AVR-20131216/lib/gcc/avr/4.8.1/avr6/libgcc.a(_udivmod64.o)
 .text.libgcc.builtins
                0x00011f4a        0x0 /usr/local/CrossPack-AVR-20131216/lib/gcc/avr/4.8.1/avr6/libgcc.a(_udivmod64.o)
 .text.libgcc.fmul
                0x00011f4a        0x0 /usr/local/CrossPack-AVR-20131216/lib/gcc/avr/4.8.1/avr6/libgcc.a(_udivmod64.o)
 .text.libgcc.fixed
                0x00011f4a        0x0 /usr/local/CrossPack-AVR-20131216/lib/gcc/avr/4.8.1/avr6/libgcc.a(_udivmod64.o)
 .text.libgcc.mul
                0x00011f4a        0x0 /usr/local/CrossPack-AVR-20131216/lib/gcc/avr/4.8.1/avr6/libgcc.a(_negdi2.o)
 .text.libgcc.div
                0x00011f4a        0x0 /usr/local/CrossPack-AVR-20131216/lib/gcc/avr/4.8.1/avr6/libgcc.a(_negdi2.o)
 .text.libgcc   0x00011f4a       0x20 /usr/local/CrossPack-AVR-20131216/lib/gcc/avr/4.8.1/avr6/libgcc.a(_negdi2.o)
                0x00011f4a                __negdi2
 .text.libgcc.prologue
                0x00011f6a        0x0 /usr/local/CrossPack-AVR-20131216/lib/gcc/avr/4.8.1/avr6/libgcc.a(_negdi2.o)
 .text.libgcc.builtins
                0x00011f6a        0x0 /usr/local/CrossPack-AVR-20131216/lib/gcc/avr/4.8.1/avr6/libgcc.a(_negdi2.o)
 .text.libgcc.fmul
                0x00011f6a        0x0 /usr/local/CrossPack-AVR-20131216/lib/gcc/avr/4.8.1/avr6/libgcc.a(_negdi2.o)
 .text.libgcc.fixed
                0x00011f6a        0x0 /usr/local/CrossPack-AVR-20131216/lib/gcc/avr/4.8.1/avr6/libgcc.a(_negdi2.o)
 .text.libgcc.mul
                0x00011f6a        0x0 /usr/local/CrossPack-AVR-20131216/lib/gcc/avr/4.8.1/avr6/libgcc.a(_prologue.o)
 .text.libgcc.div
                0x00011f6a        0x0 /usr/local/CrossPack-AVR-20131216/lib/gcc/avr/4.8.1/avr6/libgcc.a(_prologue.o)
 .text.libgcc   0x00011f6a        0x0 /usr/local/CrossPack-AVR-20131216/lib/gcc/avr/4.8.1/avr6/libgcc.a(_prologue.o)
 .text.libgcc.prologue
                0x00011f6a       0x38 /usr/local/CrossPack-AVR-20131216/lib/gcc/avr/4.8.1/avr6/libgcc.a(_prologue.o)
                0x00011f6a                __prologue_saves__
 .text.libgcc.builtins
                0x00011fa2        0x0 /usr/local/CrossPack-AVR-20131216/lib/gcc/avr/4.8.1/avr6/libgcc.a(_prologue.o)
 .text.libgcc.fmul
                0x00011fa2        0x0 /usr/local/CrossPack-AVR-20131216/lib/gcc/avr/4.8.1/avr6/libgcc.a(_prologue.o)
 .text.libgcc.fixed
                0x00011fa2        0x0 /usr/local/CrossPack-AVR-20131216/lib/gcc/avr/4.8.1/avr6/libgcc.a(_prologue.o)
 .text.libgcc.mul
                0x00011fa2        0x0 /usr/local/CrossPack-AVR-20131216/lib/gcc/avr/4.8.1/avr6/libgcc.a(_epilogue.o)
 .text.libgcc.div
                0x00011fa2        0x0 /usr/local/CrossPack-AVR-20131216/lib/gcc/avr/4.8.1/avr6/libgcc.a(_epilogue.o)
 .text.libgcc   0x00011fa2        0x0 /usr/local/CrossPack-AVR-20131216/lib/gcc/avr/4.8.1/avr6/libgcc.a(_epilogue.o)
 .text.libgcc.prologue
                0x00011fa2       0x36 /usr/local/CrossPack-AVR-20131216/lib/gcc/avr/4.8.1/avr6/libgcc.a(_epilogue.o)
                0x00011fa2                __epilogue_restores__
 .text.libgcc.builtins
                0x00011fd8        0x0 /usr/local/CrossPack-AVR-20131216/lib/gcc/avr/4.8.1/avr6/libgcc.a(_epilogue.o)
 .text.libgcc.fmul
                0x00011fd8        0x0 /usr/local/CrossPack-AVR-20131216/lib/gcc/avr/4.8.1/avr6/libgcc.a(_epilogue.o)
 .text.libgcc.fixed
                0x00011fd8        0x0 /usr/local/CrossPack-AVR-20131216/lib/gcc/avr/4.8.1/avr6/libgcc.a(_epilogue.o)
 .text.libgcc.mul
                0x00011fd8        0x0 /usr/local/CrossPack-AVR-20131216/lib/gcc/avr/4.8.1/avr6/libgcc.a(_ashldi3.o)
 .text.libgcc.div
                0x00011fd8        0x0 /usr/local/CrossPack-AVR-20131216/lib/gcc/avr/4.8.1/avr6/libgcc.a(_ashldi3.o)
 .text.libgcc   0x00011fd8        0x0 /usr/local/CrossPack-AVR-20131216/lib/gcc/avr/4.8.1/avr6/libgcc.a(_ashldi3.o)
 .text.libgcc.prologue
                0x00011fd8        0x0 /usr/local/CrossPack-AVR-20131216/lib/gcc/avr/4.8.1/avr6/libgcc.a(_ashldi3.o)
 .text.libgcc.builtins
                0x00011fd8       0x32 /usr/local/CrossPack-AVR-20131216/lib/gcc/avr/4.8.1/avr6/libgcc.a(_ashldi3.o)
                0x00011fd8                __ashldi3
 .text.libgcc.fmul
                0x0001200a        0x0 /usr/local/CrossPack-AVR-20131216/lib/gcc/avr/4.8.1/avr6/libgcc.a(_ashldi3.o)
 .text.libgcc.fixed
                0x0001200a        0x0 /usr/local/CrossPack-AVR-20131216/lib/gcc/avr/4.8.1/avr6/libgcc.a(_ashldi3.o)
 .text.libgcc.mul
                0x0001200a        0x0 /usr/local/CrossPack-AVR-20131216/lib/gcc/avr/4.8.1/avr6/libgcc.a(_ashrdi3.o)
 .text.libgcc.div
                0x0001200a        0x0 /usr/local/CrossPack-AVR-20131216/lib/gcc/avr/4.8.1/avr6/libgcc.a(_ashrdi3.o)
 .text.libgcc   0x0001200a        0x0 /usr/local/CrossPack-AVR-20131216/lib/gcc/avr/4.8.1/avr6/libgcc.a(_ashrdi3.o)
 .text.libgcc.prologue
                0x0001200a        0x0 /usr/local/CrossPack-AVR-20131216/lib/gcc/avr/4.8.1/avr6/libgcc.a(_ashrdi3.o)
 .text.libgcc.builtins
                0x0001200a       0x3c /usr/local/CrossPack-AVR-20131216/lib/gcc/avr/4.8.1/avr6/libgcc.a(_ashrdi3.o)
                0x0001200a                __ashrdi3
                0x0001200e                __lshrdi3
 .text.libgcc.fmul
                0x00012046        0x0 /usr/local/CrossPack-AVR-20131216/lib/gcc/avr/4.8.1/avr6/libgcc.a(_ashrdi3.o)
 .text.libgcc.fixed
                0x00012046        0x0 /usr/local/CrossPack-AVR-20131216/lib/gcc/avr/4.8.1/avr6/libgcc.a(_ashrdi3.o)
 .text.libgcc.mul
                0x00012046        0x0 /usr/local/CrossPack-AVR-20131216/lib/gcc/avr/4.8.1/avr6/libgcc.a(_adddi3.o)
 .text.libgcc.div
                0x00012046        0x0 /usr/local/CrossPack-AVR-20131216/lib/gcc/avr/4.8.1/avr6/libgcc.a(_adddi3.o)
 .text.libgcc   0x00012046       0x12 /usr/local/CrossPack-AVR-20131216/lib/gcc/avr/4.8.1/avr6/libgcc.a(_adddi3.o)
                0x00012046                __adddi3
 .text.libgcc.prologue
                0x00012058        0x0 /usr/local/CrossPack-AVR-20131216/lib/gcc/avr/4.8.1/avr6/libgcc.a(_adddi3.o)
 .text.libgcc.builtins
                0x00012058        0x0 /usr/local/CrossPack-AVR-20131216/lib/gcc/avr/4.8.1/avr6/libgcc.a(_adddi3.o)
 .text.libgcc.fmul
                0x00012058        0x0 /usr/local/CrossPack-AVR-20131216/lib/gcc/avr/4.8.1/avr6/libgcc.a(_adddi3.o)
 .text.libgcc.fixed
                0x00012058        0x0 /usr/local/CrossPack-AVR-20131216/lib/gcc/avr/4.8.1/avr6/libgcc.a(_adddi3.o)
 .text.libgcc.mul
                0x00012058        0x0 /usr/local/CrossPack-AVR-20131216/lib/gcc/avr/4.8.1/avr6/libgcc.a(_subdi3.o)
 .text.libgcc.div
                0x00012058        0x0 /usr/local/CrossPack-AVR-20131216/lib/gcc/avr/4.8.1/avr6/libgcc.a(_subdi3.o)
 .text.libgcc   0x00012058       0x12 /usr/local/CrossPack-AVR-20131216/lib/gcc/avr/4.8.1/avr6/libgcc.a(_subdi3.o)
                0x00012058                __subdi3
 .text.libgcc.prologue
                0x0001206a        0x0 /usr/local/CrossPack-AVR-20131216/lib/gcc/avr/4.8.1/avr6/libgcc.a(_subdi3.o)
 .text.libgcc.builtins
                0x0001206a        0x0 /usr/local/CrossPack-AVR-20131216/lib/gcc/avr/4.8.1/avr6/libgcc.a(_subdi3.o)
 .text.libgcc.fmul
                0x0001206a        0x0 /usr/local/CrossPack-AVR-20131216/lib/gcc/avr/4.8.1/avr6/libgcc.a(_subdi3.o)
 .text.libgcc.fixed
                0x0001206a        0x0 /usr/local/CrossPack-AVR-20131216/lib/gcc/avr/4.8.1/avr6/libgcc.a(_subdi3.o)
 .text.libgcc.mul
                0x0001206a        0x0 /usr/local/CrossPack-AVR-20131216/lib/gcc/avr/4.8.1/avr6/libgcc.a(_cmpdi2.o)
 .text.libgcc.div
                0x0001206a        0x0 /usr/local/CrossPack-AVR-20131216/lib/gcc/avr/4.8.1/avr6/libgcc.a(_cmpdi2.o)
 .text.libgcc   0x0001206a       0x12 /usr/local/CrossPack-AVR-20131216/lib/gcc/avr/4.8.1/avr6/libgcc.a(_cmpdi2.o)
                0x0001206a                __cmpdi2
 .text.libgcc.prologue
                0x0001207c        0x0 /usr/local/CrossPack-AVR-20131216/lib/gcc/avr/4.8.1/avr6/libgcc.a(_cmpdi2.o)
 .text.libgcc.builtins
                0x0001207c        0x0 /usr/local/CrossPack-AVR-20131216/lib/gcc/avr/4.8.1/avr6/libgcc.a(_cmpdi2.o)
 .text.libgcc.fmul
                0x0001207c        0x0 /usr/local/CrossPack-AVR-20131216/lib/gcc/avr/4.8.1/avr6/libgcc.a(_cmpdi2.o)
 .text.libgcc.fixed
                0x0001207c        0x0 /usr/local/CrossPack-AVR-20131216/lib/gcc/avr/4.8.1/avr6/libgcc.a(_cmpdi2.o)
 .text.libgcc.mul
                0x0001207c        0x0 /usr/local/CrossPack-AVR-20131216/lib/gcc/avr/4.8.1/avr6/libgcc.a(_cmpdi2_s8.o)
 .text.libgcc.div
                0x0001207c        0x0 /usr/local/CrossPack-AVR-20131216/lib/gcc/avr/4.8.1/avr6/libgcc.a(_cmpdi2_s8.o)
 .text.libgcc   0x0001207c       0x18 /usr/local/CrossPack-AVR-20131216/lib/gcc/avr/4.8.1/avr6/libgcc.a(_cmpdi2_s8.o)
                0x0001207c                __cmpdi2_s8
 .text.libgcc.prologue
                0x00012094        0x0 /usr/local/CrossPack-AVR-20131216/lib/gcc/avr/4.8.1/avr6/libgcc.a(_cmpdi2_s8.o)
 .text.libgcc.builtins
                0x00012094        0x0 /usr/local/CrossPack-AVR-20131216/lib/gcc/avr/4.8.1/avr6/libgcc.a(_cmpdi2_s8.o)
 .text.libgcc.fmul
                0x00012094        0x0 /usr/local/CrossPack-AVR-20131216/lib/gcc/avr/4.8.1/avr6/libgcc.a(_cmpdi2_s8.o)
 .text.libgcc.fixed
                0x00012094        0x0 /usr/local/CrossPack-AVR-20131216/lib/gcc/avr/4.8.1/avr6/libgcc.a(_cmpdi2_s8.o)
 .text.libgcc.mul
                0x00012094       0x1e /usr/local/CrossPack-AVR-20131216/lib/gcc/avr/4.8.1/avr6/libgcc.a(_umulhisi3.o)
                0x00012094                __umulhisi3
 .text.libgcc.div
                0x000120b2        0x0 /usr/local/CrossPack-AVR-20131216/lib/gcc/avr/4.8.1/avr6/libgcc.a(_umulhisi3.o)
 .text.libgcc   0x000120b2        0x0 /usr/local/CrossPack-AVR-20131216/lib/gcc/avr/4.8.1/avr6/libgcc.a(_umulhisi3.o)
 .text.libgcc.prologue
                0x000120b2        0x0 /usr/local/CrossPack-AVR-20131216/lib/gcc/avr/4.8.1/avr6/libgcc.a(_umulhisi3.o)
 .text.libgcc.builtins
                0x000120b2        0x0 /usr/local/CrossPack-AVR-20131216/lib/gcc/avr/4.8.1/avr6/libgcc.a(_umulhisi3.o)
 .text.libgcc.fmul
                0x000120b2        0x0 /usr/local/CrossPack-AVR-20131216/lib/gcc/avr/4.8.1/avr6/libgcc.a(_umulhisi3.o)
 .text.libgcc.fixed
                0x000120b2        0x0 /usr/local/CrossPack-AVR-20131216/lib/gcc/avr/4.8.1/avr6/libgcc.a(_umulhisi3.o)
 .text.avr-libc.fplib
                0x000120b2        0xa /usr/local/CrossPack-AVR-20131216/lib/gcc/avr/4.8.1/../../../../avr/lib/avr6/libm.a(addsf3.o)
                0x000120b2                __subsf3
                0x000120b4                __addsf3
 .text.avr-libc.fplib
                0x000120bc       0xc0 /usr/local/CrossPack-AVR-20131216/lib/gcc/avr/4.8.1/../../../../avr/lib/avr6/libm.a(addsf3x.o)
                0x000120d6                __addsf3x
 .text.avr-libc.fplib
                0x0001217c        0x4 /usr/local/CrossPack-AVR-20131216/lib/gcc/avr/4.8.1/../../../../avr/lib/avr6/libm.a(divsf3.o)
                0x0001217c                __divsf3
 .text.avr-libc.fplib
                0x00012180       0xcc /usr/local/CrossPack-AVR-20131216/lib/gcc/avr/4.8.1/../../../../avr/lib/avr6/libm.a(divsf3x.o)
                0x00012196                __divsf3x
                0x0001219a                __divsf3_pse
 .text.avr-libc.fplib
                0x0001224c        0xa /usr/local/CrossPack-AVR-20131216/lib/gcc/avr/4.8.1/../../../../avr/lib/avr6/libm.a(fixsfsi.o)
                0x0001224c                __fixsfsi
 .text.avr-libc.fplib
                0x00012256       0x58 /usr/local/CrossPack-AVR-20131216/lib/gcc/avr/4.8.1/../../../../avr/lib/avr6/libm.a(fixunssfsi.o)
                0x00012256                __fixunssfsi
 .text.avr-libc.fplib
                0x000122ae       0x7a /usr/local/CrossPack-AVR-20131216/lib/gcc/avr/4.8.1/../../../../avr/lib/avr6/libm.a(floatsisf.o)
                0x000122ae                __floatunsisf
                0x000122b2                __floatsisf
 .text.avr-libc.fplib
                0x00012328        0xc /usr/local/CrossPack-AVR-20131216/lib/gcc/avr/4.8.1/../../../../avr/lib/avr6/libm.a(fp_inf.o)
                0x00012328                __fp_inf
 .text.avr-libc.fplib
                0x00012334        0x6 /usr/local/CrossPack-AVR-20131216/lib/gcc/avr/4.8.1/../../../../avr/lib/avr6/libm.a(fp_nan.o)
                0x00012334                __fp_nan
 .text.avr-libc.fplib
                0x0001233a        0xe /usr/local/CrossPack-AVR-20131216/lib/gcc/avr/4.8.1/../../../../avr/lib/avr6/libm.a(fp_pscA.o)
                0x0001233a                __fp_pscA
 .text.avr-libc.fplib
                0x00012348        0xe /usr/local/CrossPack-AVR-20131216/lib/gcc/avr/4.8.1/../../../../avr/lib/avr6/libm.a(fp_pscB.o)
                0x00012348                __fp_pscB
 .text.avr-libc.fplib
                0x00012356       0x22 /usr/local/CrossPack-AVR-20131216/lib/gcc/avr/4.8.1/../../../../avr/lib/avr6/libm.a(fp_round.o)
                0x00012356                __fp_round
 .text.avr-libc.fplib
                0x00012378       0x44 /usr/local/CrossPack-AVR-20131216/lib/gcc/avr/4.8.1/../../../../avr/lib/avr6/libm.a(fp_split3.o)
                0x00012378                __fp_split3
                0x00012388                __fp_splitA
 .text.avr-libc.fplib
                0x000123bc        0xe /usr/local/CrossPack-AVR-20131216/lib/gcc/avr/4.8.1/../../../../avr/lib/avr6/libm.a(fp_zero.o)
                0x000123bc                __fp_zero
                0x000123be                __fp_szero
 .text.avr-libc.fplib
                0x000123ca        0x4 /usr/local/CrossPack-AVR-20131216/lib/gcc/avr/4.8.1/../../../../avr/lib/avr6/libm.a(mulsf3.o)
                0x000123ca                __mulsf3
 .text.avr-libc.fplib
                0x000123ce       0xc2 /usr/local/CrossPack-AVR-20131216/lib/gcc/avr/4.8.1/../../../../avr/lib/avr6/libm.a(mulsf3x.o)
                0x000123e2                __mulsf3x
                0x000123e6                __mulsf3_pse
 .text.avr-libc.fplib
                0x00012490       0x98 /usr/local/CrossPack-AVR-20131216/lib/gcc/avr/4.8.1/../../../../avr/lib/avr6/libm.a(pow.o)
                0x00012490                pow
 .text.avr-libc.fplib
                0x00012528       0x62 /usr/local/CrossPack-AVR-20131216/lib/gcc/avr/4.8.1/../../../../avr/lib/avr6/libm.a(exp.o)
                0x00012532                exp
 .text.avr-libc.fplib
                0x0001258a       0x4a /usr/local/CrossPack-AVR-20131216/lib/gcc/avr/4.8.1/../../../../avr/lib/avr6/libm.a(fp_powser.o)
                0x0001258a                __fp_powser
 .text.avr-libc.fplib
                0x000125d4        0xe /usr/local/CrossPack-AVR-20131216/lib/gcc/avr/4.8.1/../../../../avr/lib/avr6/libm.a(inverse.o)
                0x000125d4                inverse
 .text.avr-libc.fplib
                0x000125e2       0x6c /usr/local/CrossPack-AVR-20131216/lib/gcc/avr/4.8.1/../../../../avr/lib/avr6/libm.a(ldexp.o)
                0x000125e6                ldexp
 .text.avr-libc.fplib
                0x0001264e       0x8a /usr/local/CrossPack-AVR-20131216/lib/gcc/avr/4.8.1/../../../../avr/lib/avr6/libm.a(log.o)
                0x00012658                log
 .text.avr-libc.fplib
                0x000126d8       0x66 /usr/local/CrossPack-AVR-20131216/lib/gcc/avr/4.8.1/../../../../avr/lib/avr6/libm.a(modf.o)
                0x000126d8                modff
                0x000126d8                modf
 .text.avr-libc.fplib
                0x0001273e       0x1c /usr/local/CrossPack-AVR-20131216/lib/gcc/avr/4.8.1/../../../../avr/lib/avr6/libm.a(fp_mpack.o)
                0x0001273e                __fp_mpack
                0x00012742                __fp_mpack_finite
 .text.avr-libc
                0x0001275a       0x12 /usr/local/CrossPack-AVR-20131216/lib/gcc/avr/4.8.1/../../../../avr/lib/avr6/libc.a(memcpy.o)
                0x0001275a                memcpy
 .text.avr-libc
                0x0001276c       0x24 /usr/local/CrossPack-AVR-20131216/lib/gcc/avr/4.8.1/../../../../avr/lib/avr6/libc.a(memmove.o)
                0x0001276c                memmove
 .text.avr-libc
                0x00012790        0xe /usr/local/CrossPack-AVR-20131216/lib/gcc/avr/4.8.1/../../../../avr/lib/avr6/libc.a(memset.o)
                0x00012790                memset
 .text.avr-libc
                0x0001279e       0x7a /usr/local/CrossPack-AVR-20131216/lib/gcc/avr/4.8.1/../../../../avr/lib/avr6/libc.a(snprintf.o)
                0x0001279e                snprintf
 .text.avr-libc
                0x00012818       0x72 /usr/local/CrossPack-AVR-20131216/lib/gcc/avr/4.8.1/../../../../avr/lib/avr6/libc.a(vsnprintf.o)
                0x00012818                vsnprintf
 .text.avr-libc
                0x0001288a      0x3f6 /usr/local/CrossPack-AVR-20131216/lib/gcc/avr/4.8.1/../../../../avr/lib/avr6/libc.a(vfprintf_std.o)
                0x0001288a                vfprintf
 .text.avr-libc
                0x00012c80       0x20 /usr/local/CrossPack-AVR-20131216/lib/gcc/avr/4.8.1/../../../../avr/lib/avr6/libc.a(eerd_block_atmega2560.o)
                0x00012c80                __eerd_block_m2560
                0x00012c84                __eerd_blraw_m2560
 .text.avr-libc
                0x00012ca0       0x10 /usr/local/CrossPack-AVR-20131216/lib/gcc/avr/4.8.1/../../../../avr/lib/avr6/libc.a(eerd_byte_atmega2560.o)
                0x00012ca0                __eerd_byte_m2560
 .text.avr-libc
                0x00012cb0        0xc /usr/local/CrossPack-AVR-20131216/lib/gcc/avr/4.8.1/../../../../avr/lib/avr6/libc.a(eerd_word_atmega2560.o)
                0x00012cb0                __eerd_word_m2560
 .text.avr-libc
                0x00012cbc       0x20 /usr/local/CrossPack-AVR-20131216/lib/gcc/avr/4.8.1/../../../../avr/lib/avr6/libc.a(eeupd_block_atmega2560.o)
                0x00012cbc                __eeupd_block_m2560
 .text.avr-libc
                0x00012cdc       0x24 /usr/local/CrossPack-AVR-20131216/lib/gcc/avr/4.8.1/../../../../avr/lib/avr6/libc.a(eeupd_byte_atmega2560.o)
                0x00012cdc                __eeupd_byte_m2560
                0x00012cde                __eeupd_r18_m2560
 .text.avr-libc
                0x00012d00        0xc /usr/local/CrossPack-AVR-20131216/lib/gcc/avr/4.8.1/../../../../avr/lib/avr6/libc.a(eeupd_word_atmega2560.o)
                0x00012d00                __eeupd_word_m2560
 .text.avr-libc
                0x00012d0c       0x16 /usr/local/CrossPack-AVR-20131216/lib/gcc/avr/4.8.1/../../../../avr/lib/avr6/libc.a(strnlen_P.o)
                0x00012d0c                strnlen_P
 .text.avr-libc
                0x00012d22       0x16 /usr/local/CrossPack-AVR-20131216/lib/gcc/avr/4.8.1/../../../../avr/lib/avr6/libc.a(strnlen.o)
                0x00012d22                strnlen
 .text.avr-libc
                0x00012d38       0x64 /usr/local/CrossPack-AVR-20131216/lib/gcc/avr/4.8.1/../../../../avr/lib/avr6/libc.a(fputc.o)
                0x00012d38                fputc
 .text.avr-libc
                0x00012d9c       0xbc /usr/local/CrossPack-AVR-20131216/lib/gcc/avr/4.8.1/../../../../avr/lib/avr6/libc.a(ultoa_invert.o)
                0x00012d9c                __ultoa_invert
                0x00012e58                . = ALIGN (0x2)
 *(.fini9)
 .fini9         0x00012e58        0x0 /usr/local/CrossPack-AVR-20131216/lib/gcc/avr/4.8.1/avr6/libgcc.a(_exit.o)
                0x00012e58                exit
                0x00012e58                _exit
 *(.fini9)
 *(.fini8)
 *(.fini8)
 *(.fini7)
 *(.fini7)
 *(.fini6)
 *(.fini6)
 *(.fini5)
 *(.fini5)
 *(.fini4)
 *(.fini4)
 *(.fini3)
 *(.fini3)
 *(.fini2)
 *(.fini2)
 *(.fini1)
 *(.fini1)
 *(.fini0)
 .fini0         0x00012e58        0x4 /usr/local/CrossPack-AVR-20131216/lib/gcc/avr/4.8.1/avr6/libgcc.a(_exit.o)
 *(.fini0)
                0x00012e5c                _etext = .

.data           0x00800200      0x894 load address 0x00012e5c
                0x00800200                PROVIDE (__data_start, .)
 *(.data)
 .data          0x00800200        0x0 /usr/local/CrossPack-AVR-20131216/lib/gcc/avr/4.8.1/../../../../avr/lib/avr6/crtm2560.o
 .data          0x00800200        0x0 darjeeling.a(main.o)
 .data          0x00800200        0x0 darjeeling.a(avr.o)
 .data          0x00800200        0x0 darjeeling.a(core.o)
 .data          0x00800200        0x0 darjeeling.a(debug.o)
 .data          0x00800200        0x0 darjeeling.a(djarchive.o)
 .data          0x00800200        0x0 darjeeling.a(djtimer.o)
 .data          0x00800200        0x0 darjeeling.a(heap.o)
 .data          0x00800200        0x0 darjeeling.a(hooks.o)
 .data          0x00800200        0x0 darjeeling.a(panic.o)
 .data          0x00800200        0x0 darjeeling.a(vm.o)
 .data          0x00800200        0x0 darjeeling.a(vm_gc.o)
 .data          0x00800200        0x0 darjeeling.a(vmthread.o)
 .data          0x00800200        0x0 darjeeling.a(app_infusions.o)
 .data          0x00800200        0x0 darjeeling.a(lib_infusions.o)
 .data          0x00800200        0xd darjeeling.a(GENERATEDlibinit.o)
                0x00800200                java_library_native_handlers_length
                0x00800201                java_library_native_handlers
 .data          0x0080020d        0x0 darjeeling.a(array.o)
 .data          0x0080020d        0x0 darjeeling.a(base_init.o)
 .data          0x0080020d        0x0 darjeeling.a(darjeeling3_init.o)
 .data          0x0080020d        0x0 darjeeling.a(execution.o)
 .data          0x0080020d        0x0 darjeeling.a(global_id.o)
 .data          0x0080020d        0x0 darjeeling.a(infusion.o)
 .data          0x0080020d        0x0 darjeeling.a(jlib_base.o)
 .data          0x0080020d        0x0 darjeeling.a(jlib_darjeeling3.o)
 .data          0x0080020d        0x0 darjeeling.a(jlib_wkpf_virtual.o)
 .data          0x0080020d        0x0 darjeeling.a(jstring.o)
 .data          0x0080020d        0x0 darjeeling.a(object.o)
 .data          0x0080020d        0x0 darjeeling.a(uart_init.o)
 .data          0x0080020d        0x0 darjeeling.a(util.o)
 .data          0x0080020d        0x0 darjeeling.a(vm_init.o)
 .data          0x0080020d        0x0 darjeeling.a(wkcomm_init.o)
 .data          0x0080020d        0x0 darjeeling.a(wkpf_init.o)
 .data          0x0080020d        0x0 darjeeling.a(wkpf_virtual_init.o)
 .data          0x0080020d        0x0 darjeeling.a(wkreprog_init.o)
 .data          0x0080020d        0x0 darjeeling.a(GENERATEDnative_wuclasses.o)
 .data          0x0080020d        0xd darjeeling.a(GENERATEDwuclass_ir_sensor.o)
                0x0080020d                wuclass_ir_sensor
 .data          0x0080021a       0x10 darjeeling.a(GENERATEDwuclass_led.o)
                0x0080021a                wuclass_led
 .data          0x0080022a        0xe darjeeling.a(GENERATEDwuclass_magnetic_sensor.o)
                0x0080022a                wuclass_magnetic_sensor
 .data          0x00800238        0xe darjeeling.a(GENERATEDwuclass_or_gate.o)
                0x00800238                wuclass_or_gate
 .data          0x00800246        0xd darjeeling.a(GENERATEDwuclass_pir_sensor.o)
                0x00800246                wuclass_pir_sensor
 .data          0x00800253        0xd darjeeling.a(GENERATEDwuclass_ultrasound_sensor.o)
                0x00800253                wuclass_ultrasound_sensor
 .data          0x00800260        0x0 darjeeling.a(java_lang_Object.o)
 .data          0x00800260        0x0 darjeeling.a(java_lang_Runtime.o)
 .data          0x00800260        0x0 darjeeling.a(java_lang_System.o)
 .data          0x00800260        0x0 darjeeling.a(java_lang_Thread.o)
 .data          0x00800260        0x0 darjeeling.a(javax_darjeeling_Darjeeling.o)
 .data          0x00800260        0x0 darjeeling.a(javax_darjeeling_vm_Infusion.o)
 .data          0x00800260        0x0 darjeeling.a(javax_wukong_wkpf_WKPF.o)
 .data          0x00800260        0x0 darjeeling.a(routing_none.o)
 .data          0x00800260        0x0 darjeeling.a(wkcomm.o)
 .data          0x00800260        0x0 darjeeling.a(wkpf_comm.o)
 .data          0x00800260        0x0 darjeeling.a(wkpf_config.o)
 .data          0x00800260        0x0 darjeeling.a(wkpf_gc.o)
 .data          0x00800260       0x29 darjeeling.a(wkpf_links.o)
                0x00800260                wkpf_token_src_component
                0x0080026a                wkpf_token_dest_component
                0x00800274                wkpf_token_setter_link
                0x0080027e                wkpf_token_id
                0x00800288                stable_state
 .data          0x00800289        0x0 darjeeling.a(wkpf_main.o)
 .data          0x00800289        0x0 darjeeling.a(wkpf_properties.o)
 .data          0x00800289        0x0 darjeeling.a(wkpf_virtual_wuclasses.o)
 .data          0x00800289        0x0 darjeeling.a(wkpf_wuclasses.o)
 .data          0x00800289        0x0 darjeeling.a(wkpf_wuobjects.o)
 .data          0x00800289        0x0 darjeeling.a(wkreprog.o)
 .data          0x00800289        0x0 darjeeling.a(wkreprog_comm.o)
 .data          0x00800289        0x0 darjeeling.a(wkreprog_impl.o)
 .data          0x00800289        0x0 darjeeling.a(wuclass_LED_update.o)
 .data          0x00800289        0x0 darjeeling.a(wuclass_ir_sensor_update.o)
 .data          0x00800289        0x0 darjeeling.a(wuclass_magnetic_sensor_update.o)
 .data          0x00800289        0x0 darjeeling.a(wuclass_or_gate_update.o)
 .data          0x00800289        0x0 darjeeling.a(wuclass_pir_sensor.o)
 .data          0x00800289        0x0 darjeeling.a(wuclass_ultrasound_sensor_update.o)
 .data          0x00800289        0x2 darjeeling.a(radio_zwave.o)
                0x00800289                wait_RF_ready
                0x0080028a                wait_CAN_NAK
 .data          0x0080028b        0x0 darjeeling.a(radio_zwave_platform_dependent.o)
 .data          0x0080028b       0x44 darjeeling.a(uart.o)
                0x0080028b                XCKn
                0x0080028f                XCKDDR
                0x00800297                UBRR
                0x0080029f                UDR
                0x008002a7                UCSRC
                0x008002af                UCSRB
                0x008002b7                UCSRA
                0x008002bf                UBRRL
                0x008002c7                UBRRH
 .data          0x008002cf        0x0 /usr/local/CrossPack-AVR-20131216/lib/gcc/avr/4.8.1/avr6/libgcc.a(_mulsi3.o)
 .data          0x008002cf        0x0 /usr/local/CrossPack-AVR-20131216/lib/gcc/avr/4.8.1/avr6/libgcc.a(_udivmodhi4.o)
 .data          0x008002cf        0x0 /usr/local/CrossPack-AVR-20131216/lib/gcc/avr/4.8.1/avr6/libgcc.a(_udivmodsi4.o)
 .data          0x008002cf        0x0 /usr/local/CrossPack-AVR-20131216/lib/gcc/avr/4.8.1/avr6/libgcc.a(_divmodsi4.o)
 .data          0x008002cf        0x0 /usr/local/CrossPack-AVR-20131216/lib/gcc/avr/4.8.1/avr6/libgcc.a(_negsi2.o)
 .data          0x008002cf        0x0 /usr/local/CrossPack-AVR-20131216/lib/gcc/avr/4.8.1/avr6/libgcc.a(_exit.o)
 .data          0x008002cf        0x0 /usr/local/CrossPack-AVR-20131216/lib/gcc/avr/4.8.1/avr6/libgcc.a(_tablejump.o)
 .data          0x008002cf        0x0 /usr/local/CrossPack-AVR-20131216/lib/gcc/avr/4.8.1/avr6/libgcc.a(_copy_data.o)
 .data          0x008002cf        0x0 /usr/local/CrossPack-AVR-20131216/lib/gcc/avr/4.8.1/avr6/libgcc.a(_clear_bss.o)
 .data          0x008002cf        0x0 /usr/local/CrossPack-AVR-20131216/lib/gcc/avr/4.8.1/avr6/libgcc.a(_muluhisi3.o)
 .data          0x008002cf        0x0 /usr/local/CrossPack-AVR-20131216/lib/gcc/avr/4.8.1/avr6/libgcc.a(_muldi3.o)
 .data          0x008002cf        0x0 /usr/local/CrossPack-AVR-20131216/lib/gcc/avr/4.8.1/avr6/libgcc.a(_muldi3_6.o)
 .data          0x008002cf        0x0 /usr/local/CrossPack-AVR-20131216/lib/gcc/avr/4.8.1/avr6/libgcc.a(_divdi3.o)
 .data          0x008002cf        0x0 /usr/local/CrossPack-AVR-20131216/lib/gcc/avr/4.8.1/avr6/libgcc.a(_udivdi3.o)
 .data          0x008002cf        0x0 /usr/local/CrossPack-AVR-20131216/lib/gcc/avr/4.8.1/avr6/libgcc.a(_udivmod64.o)
 .data          0x008002cf        0x0 /usr/local/CrossPack-AVR-20131216/lib/gcc/avr/4.8.1/avr6/libgcc.a(_negdi2.o)
 .data          0x008002cf        0x0 /usr/local/CrossPack-AVR-20131216/lib/gcc/avr/4.8.1/avr6/libgcc.a(_prologue.o)
 .data          0x008002cf        0x0 /usr/local/CrossPack-AVR-20131216/lib/gcc/avr/4.8.1/avr6/libgcc.a(_epilogue.o)
 .data          0x008002cf        0x0 /usr/local/CrossPack-AVR-20131216/lib/gcc/avr/4.8.1/avr6/libgcc.a(_ashldi3.o)
 .data          0x008002cf        0x0 /usr/local/CrossPack-AVR-20131216/lib/gcc/avr/4.8.1/avr6/libgcc.a(_ashrdi3.o)
 .data          0x008002cf        0x0 /usr/local/CrossPack-AVR-20131216/lib/gcc/avr/4.8.1/avr6/libgcc.a(_adddi3.o)
 .data          0x008002cf        0x0 /usr/local/CrossPack-AVR-20131216/lib/gcc/avr/4.8.1/avr6/libgcc.a(_subdi3.o)
 .data          0x008002cf        0x0 /usr/local/CrossPack-AVR-20131216/lib/gcc/avr/4.8.1/avr6/libgcc.a(_cmpdi2.o)
 .data          0x008002cf        0x0 /usr/local/CrossPack-AVR-20131216/lib/gcc/avr/4.8.1/avr6/libgcc.a(_cmpdi2_s8.o)
 .data          0x008002cf        0x0 /usr/local/CrossPack-AVR-20131216/lib/gcc/avr/4.8.1/avr6/libgcc.a(_umulhisi3.o)
 .data          0x008002cf        0x0 /usr/local/CrossPack-AVR-20131216/lib/gcc/avr/4.8.1/../../../../avr/lib/avr6/libm.a(addsf3.o)
 .data          0x008002cf        0x0 /usr/local/CrossPack-AVR-20131216/lib/gcc/avr/4.8.1/../../../../avr/lib/avr6/libm.a(addsf3x.o)
 .data          0x008002cf        0x0 /usr/local/CrossPack-AVR-20131216/lib/gcc/avr/4.8.1/../../../../avr/lib/avr6/libm.a(divsf3.o)
 .data          0x008002cf        0x0 /usr/local/CrossPack-AVR-20131216/lib/gcc/avr/4.8.1/../../../../avr/lib/avr6/libm.a(divsf3x.o)
 .data          0x008002cf        0x0 /usr/local/CrossPack-AVR-20131216/lib/gcc/avr/4.8.1/../../../../avr/lib/avr6/libm.a(fixsfsi.o)
 .data          0x008002cf        0x0 /usr/local/CrossPack-AVR-20131216/lib/gcc/avr/4.8.1/../../../../avr/lib/avr6/libm.a(fixunssfsi.o)
 .data          0x008002cf        0x0 /usr/local/CrossPack-AVR-20131216/lib/gcc/avr/4.8.1/../../../../avr/lib/avr6/libm.a(floatsisf.o)
 .data          0x008002cf        0x0 /usr/local/CrossPack-AVR-20131216/lib/gcc/avr/4.8.1/../../../../avr/lib/avr6/libm.a(fp_inf.o)
 .data          0x008002cf        0x0 /usr/local/CrossPack-AVR-20131216/lib/gcc/avr/4.8.1/../../../../avr/lib/avr6/libm.a(fp_nan.o)
 .data          0x008002cf        0x0 /usr/local/CrossPack-AVR-20131216/lib/gcc/avr/4.8.1/../../../../avr/lib/avr6/libm.a(fp_pscA.o)
 .data          0x008002cf        0x0 /usr/local/CrossPack-AVR-20131216/lib/gcc/avr/4.8.1/../../../../avr/lib/avr6/libm.a(fp_pscB.o)
 .data          0x008002cf        0x0 /usr/local/CrossPack-AVR-20131216/lib/gcc/avr/4.8.1/../../../../avr/lib/avr6/libm.a(fp_round.o)
 .data          0x008002cf        0x0 /usr/local/CrossPack-AVR-20131216/lib/gcc/avr/4.8.1/../../../../avr/lib/avr6/libm.a(fp_split3.o)
 .data          0x008002cf        0x0 /usr/local/CrossPack-AVR-20131216/lib/gcc/avr/4.8.1/../../../../avr/lib/avr6/libm.a(fp_zero.o)
 .data          0x008002cf        0x0 /usr/local/CrossPack-AVR-20131216/lib/gcc/avr/4.8.1/../../../../avr/lib/avr6/libm.a(mulsf3.o)
 .data          0x008002cf        0x0 /usr/local/CrossPack-AVR-20131216/lib/gcc/avr/4.8.1/../../../../avr/lib/avr6/libm.a(mulsf3x.o)
 .data          0x008002cf        0x0 /usr/local/CrossPack-AVR-20131216/lib/gcc/avr/4.8.1/../../../../avr/lib/avr6/libm.a(pow.o)
 .data          0x008002cf        0x0 /usr/local/CrossPack-AVR-20131216/lib/gcc/avr/4.8.1/../../../../avr/lib/avr6/libm.a(exp.o)
 .data          0x008002cf        0x0 /usr/local/CrossPack-AVR-20131216/lib/gcc/avr/4.8.1/../../../../avr/lib/avr6/libm.a(fp_powser.o)
 .data          0x008002cf        0x0 /usr/local/CrossPack-AVR-20131216/lib/gcc/avr/4.8.1/../../../../avr/lib/avr6/libm.a(inverse.o)
 .data          0x008002cf        0x0 /usr/local/CrossPack-AVR-20131216/lib/gcc/avr/4.8.1/../../../../avr/lib/avr6/libm.a(ldexp.o)
 .data          0x008002cf        0x0 /usr/local/CrossPack-AVR-20131216/lib/gcc/avr/4.8.1/../../../../avr/lib/avr6/libm.a(log.o)
 .data          0x008002cf        0x0 /usr/local/CrossPack-AVR-20131216/lib/gcc/avr/4.8.1/../../../../avr/lib/avr6/libm.a(modf.o)
 .data          0x008002cf        0x0 /usr/local/CrossPack-AVR-20131216/lib/gcc/avr/4.8.1/../../../../avr/lib/avr6/libm.a(fp_mpack.o)
 .data          0x008002cf        0x0 /usr/local/CrossPack-AVR-20131216/lib/gcc/avr/4.8.1/../../../../avr/lib/avr6/libc.a(memcpy.o)
 .data          0x008002cf        0x0 /usr/local/CrossPack-AVR-20131216/lib/gcc/avr/4.8.1/../../../../avr/lib/avr6/libc.a(memmove.o)
 .data          0x008002cf        0x0 /usr/local/CrossPack-AVR-20131216/lib/gcc/avr/4.8.1/../../../../avr/lib/avr6/libc.a(memset.o)
 .data          0x008002cf        0x0 /usr/local/CrossPack-AVR-20131216/lib/gcc/avr/4.8.1/../../../../avr/lib/avr6/libc.a(snprintf.o)
 .data          0x008002cf        0x0 /usr/local/CrossPack-AVR-20131216/lib/gcc/avr/4.8.1/../../../../avr/lib/avr6/libc.a(vsnprintf.o)
 .data          0x008002cf        0x0 /usr/local/CrossPack-AVR-20131216/lib/gcc/avr/4.8.1/../../../../avr/lib/avr6/libc.a(vfprintf_std.o)
 .data          0x008002cf        0x0 /usr/local/CrossPack-AVR-20131216/lib/gcc/avr/4.8.1/../../../../avr/lib/avr6/libc.a(eerd_block_atmega2560.o)
 .data          0x008002cf        0x0 /usr/local/CrossPack-AVR-20131216/lib/gcc/avr/4.8.1/../../../../avr/lib/avr6/libc.a(eerd_byte_atmega2560.o)
 .data          0x008002cf        0x0 /usr/local/CrossPack-AVR-20131216/lib/gcc/avr/4.8.1/../../../../avr/lib/avr6/libc.a(eerd_word_atmega2560.o)
 .data          0x008002cf        0x0 /usr/local/CrossPack-AVR-20131216/lib/gcc/avr/4.8.1/../../../../avr/lib/avr6/libc.a(eeupd_block_atmega2560.o)
 .data          0x008002cf        0x0 /usr/local/CrossPack-AVR-20131216/lib/gcc/avr/4.8.1/../../../../avr/lib/avr6/libc.a(eeupd_byte_atmega2560.o)
 .data          0x008002cf        0x0 /usr/local/CrossPack-AVR-20131216/lib/gcc/avr/4.8.1/../../../../avr/lib/avr6/libc.a(eeupd_word_atmega2560.o)
 .data          0x008002cf        0x0 /usr/local/CrossPack-AVR-20131216/lib/gcc/avr/4.8.1/../../../../avr/lib/avr6/libc.a(strnlen_P.o)
 .data          0x008002cf        0x0 /usr/local/CrossPack-AVR-20131216/lib/gcc/avr/4.8.1/../../../../avr/lib/avr6/libc.a(strnlen.o)
 .data          0x008002cf        0x0 /usr/local/CrossPack-AVR-20131216/lib/gcc/avr/4.8.1/../../../../avr/lib/avr6/libc.a(fputc.o)
 .data          0x008002cf        0x0 /usr/local/CrossPack-AVR-20131216/lib/gcc/avr/4.8.1/../../../../avr/lib/avr6/libc.a(ultoa_invert.o)
 *(.data*)
 *(.rodata)
 .rodata        0x008002cf        0x3 darjeeling.a(wkpf_wuobjects.o)
                0x008002cf                wkpf_property_datatype_size
 *(.rodata*)
 .rodata.str1.1
                0x008002d2       0x22 darjeeling.a(debug.o)
 .rodata.str1.1
                0x008002f4        0x6 darjeeling.a(heap.o)
 .rodata.str1.1
                0x008002fa       0x27 darjeeling.a(hooks.o)
 .rodata.str1.1
                0x00800321      0x127 darjeeling.a(panic.o)
                                0x12b (size before relaxing)
 .rodata.str1.1
                0x00800448       0xe0 darjeeling.a(vm.o)
                                 0xe4 (size before relaxing)
 .rodata.str1.1
                0x00800528       0x40 darjeeling.a(vm_gc.o)
 .rodata.str1.1
                0x00800568       0x1e darjeeling.a(GENERATEDlibinit.o)
 .rodata.str1.1
                0x00800586       0x8a darjeeling.a(execution.o)
 .rodata.str1.1
                0x00800610       0x41 darjeeling.a(javax_darjeeling_Darjeeling.o)
 .rodata.str1.1
                0x00800651       0x9c darjeeling.a(javax_wukong_wkpf_WKPF.o)
                                 0xa0 (size before relaxing)
 .rodata.str1.1
                0x008006ed       0xc3 darjeeling.a(wkpf_comm.o)
                                 0xc9 (size before relaxing)
 .rodata.str1.1
                0x008007b0       0x16 darjeeling.a(wuclass_LED_update.o)
                                 0x1a (size before relaxing)
 .rodata.str1.1
                0x008007c6       0x51 darjeeling.a(wuclass_ir_sensor_update.o)
                                 0x55 (size before relaxing)
 .rodata.str1.1
                0x00800817       0xc3 darjeeling.a(wuclass_magnetic_sensor_update.o)
                                 0xc7 (size before relaxing)
 .rodata.str1.1
                0x008008da       0x25 darjeeling.a(wuclass_or_gate_update.o)
                                 0x29 (size before relaxing)
 .rodata.str1.1
                0x008008ff       0x4b darjeeling.a(wuclass_pir_sensor.o)
                                 0x4f (size before relaxing)
 .rodata.str1.1
                0x0080094a       0x6e darjeeling.a(wuclass_ultrasound_sensor_update.o)
                                 0x72 (size before relaxing)
 .rodata.str1.1
                0x008009b8       0xce darjeeling.a(radio_zwave.o)
                                 0xe6 (size before relaxing)
 .rodata.str1.1
                0x00800a86        0xd darjeeling.a(radio_zwave_platform_dependent.o)
                                 0x11 (size before relaxing)
 *(.gnu.linkonce.d*)
                0x00800a94                . = ALIGN (0x2)
 *fill*         0x00800a93        0x1 
                0x00800a94                _edata = .
                0x00800a94                PROVIDE (__data_end, .)

.bss            0x00800a94     0x138a
                0x00800a94                PROVIDE (__bss_start, .)
 *(.bss)
 .bss           0x00800a94        0x0 /usr/local/CrossPack-AVR-20131216/lib/gcc/avr/4.8.1/../../../../avr/lib/avr6/crtm2560.o
 .bss           0x00800a94        0x0 darjeeling.a(main.o)
 .bss           0x00800a94       0x89 darjeeling.a(avr.o)
                0x00800a94                timer0_millis
                0x00800a98                timer0_overflow_count
 .bss           0x00800b1d        0x4 darjeeling.a(core.o)
                0x00800b1d                dj_core_shutdownHook
                0x00800b1f                dj_core_pollingHook
 .bss           0x00800b21        0x4 darjeeling.a(debug.o)
                0x00800b21                darjeeling_debug_indent_index
                0x00800b23                darjeeling_debug_nesting_level
 .bss           0x00800b25        0x0 darjeeling.a(djarchive.o)
 .bss           0x00800b25        0x0 darjeeling.a(djtimer.o)
 .bss           0x00800b25       0x18 darjeeling.a(heap.o)
                0x00800b25                dj_mem_postGCHook
                0x00800b27                dj_mem_updateReferenceHook
                0x00800b29                dj_mem_markObjectHook
                0x00800b2b                dj_mem_markRootSetHook
 .bss           0x00800b3d        0x0 darjeeling.a(hooks.o)
 .bss           0x00800b3d        0x0 darjeeling.a(panic.o)
 .bss           0x00800b3d        0x0 darjeeling.a(vm.o)
 .bss           0x00800b3d        0x2 darjeeling.a(vm_gc.o)
 .bss           0x00800b3f        0x0 darjeeling.a(vmthread.o)
 .bss           0x00800b3f        0x0 darjeeling.a(app_infusions.o)
 .bss           0x00800b3f        0x0 darjeeling.a(lib_infusions.o)
 .bss           0x00800b3f        0x0 darjeeling.a(GENERATEDlibinit.o)
 .bss           0x00800b3f        0x0 darjeeling.a(array.o)
 .bss           0x00800b3f        0x0 darjeeling.a(base_init.o)
 .bss           0x00800b3f        0x0 darjeeling.a(darjeeling3_init.o)
 .bss           0x00800b3f       0x1e darjeeling.a(execution.o)
 .bss           0x00800b5d        0x0 darjeeling.a(global_id.o)
 .bss           0x00800b5d        0x0 darjeeling.a(infusion.o)
 .bss           0x00800b5d        0x0 darjeeling.a(jlib_base.o)
 .bss           0x00800b5d        0x0 darjeeling.a(jlib_darjeeling3.o)
 .bss           0x00800b5d        0x0 darjeeling.a(jlib_wkpf_virtual.o)
 .bss           0x00800b5d        0x0 darjeeling.a(jstring.o)
 .bss           0x00800b5d        0x0 darjeeling.a(object.o)
 .bss           0x00800b5d        0x0 darjeeling.a(uart_init.o)
 .bss           0x00800b5d        0x0 darjeeling.a(util.o)
 .bss           0x00800b5d        0x0 darjeeling.a(vm_init.o)
 .bss           0x00800b5d        0x0 darjeeling.a(wkcomm_init.o)
 .bss           0x00800b5d        0x0 darjeeling.a(wkpf_init.o)
 .bss           0x00800b5d        0x0 darjeeling.a(wkpf_virtual_init.o)
 .bss           0x00800b5d        0x0 darjeeling.a(wkreprog_init.o)
 .bss           0x00800b5d        0x0 darjeeling.a(GENERATEDnative_wuclasses.o)
 .bss           0x00800b5d        0x0 darjeeling.a(GENERATEDwuclass_ir_sensor.o)
 .bss           0x00800b5d        0x0 darjeeling.a(GENERATEDwuclass_led.o)
 .bss           0x00800b5d        0x0 darjeeling.a(GENERATEDwuclass_magnetic_sensor.o)
 .bss           0x00800b5d        0x0 darjeeling.a(GENERATEDwuclass_or_gate.o)
 .bss           0x00800b5d        0x0 darjeeling.a(GENERATEDwuclass_pir_sensor.o)
 .bss           0x00800b5d        0x0 darjeeling.a(GENERATEDwuclass_ultrasound_sensor.o)
 .bss           0x00800b5d        0x0 darjeeling.a(java_lang_Object.o)
 .bss           0x00800b5d        0x0 darjeeling.a(java_lang_Runtime.o)
 .bss           0x00800b5d        0x0 darjeeling.a(java_lang_System.o)
 .bss           0x00800b5d        0x0 darjeeling.a(java_lang_Thread.o)
 .bss           0x00800b5d        0x0 darjeeling.a(javax_darjeeling_Darjeeling.o)
 .bss           0x00800b5d        0x0 darjeeling.a(javax_darjeeling_vm_Infusion.o)
 .bss           0x00800b5d        0x1 darjeeling.a(javax_wukong_wkpf_WKPF.o)
                0x00800b5d                wkpf_error_code
 .bss           0x00800b5e        0x0 darjeeling.a(routing_none.o)
 .bss           0x00800b5e        0x4 darjeeling.a(wkcomm.o)
                0x00800b5e                wkcomm_handle_message_hook
                0x00800b60                wkcomm_last_seqnr
 .bss           0x00800b62        0x0 darjeeling.a(wkpf_comm.o)
 .bss           0x00800b62        0x0 darjeeling.a(wkpf_config.o)
 .bss           0x00800b62        0x0 darjeeling.a(wkpf_gc.o)
 .bss           0x00800b62        0x8 darjeeling.a(wkpf_links.o)
                0x00800b62                wkpf_number_of_components
                0x00800b64                wkpf_number_of_links
                0x00800b66                wkpf_component_map_store
                0x00800b68                wkpf_links_store
 .bss           0x00800b6a        0x0 darjeeling.a(wkpf_main.o)
 .bss           0x00800b6a        0x0 darjeeling.a(wkpf_properties.o)
 .bss           0x00800b6a        0x0 darjeeling.a(wkpf_virtual_wuclasses.o)
 .bss           0x00800b6a        0x2 darjeeling.a(wkpf_wuclasses.o)
                0x00800b6a                wuclasses_list
 .bss           0x00800b6c        0x6 darjeeling.a(wkpf_wuobjects.o)
                0x00800b6c                last_propagated_property_wuobject_index
                0x00800b6e                last_updated_wuobject_index
                0x00800b70                wuobjects_list
 .bss           0x00800b72        0x0 darjeeling.a(wkreprog.o)
 .bss           0x00800b72        0x2 darjeeling.a(wkreprog_comm.o)
 .bss           0x00800b74        0x6 darjeeling.a(wkreprog_impl.o)
                0x00800b74                avr_flash_buf_len
                0x00800b76                avr_flash_pageaddress
 .bss           0x00800b7a        0x0 darjeeling.a(wuclass_LED_update.o)
 .bss           0x00800b7a        0x0 darjeeling.a(wuclass_ir_sensor_update.o)
 .bss           0x00800b7a        0x0 darjeeling.a(wuclass_magnetic_sensor_update.o)
 .bss           0x00800b7a        0x0 darjeeling.a(wuclass_or_gate_update.o)
 .bss           0x00800b7a        0x0 darjeeling.a(wuclass_pir_sensor.o)
 .bss           0x00800b7a        0xa darjeeling.a(wuclass_ultrasound_sensor_update.o)
 .bss           0x00800b84       0x18 darjeeling.a(radio_zwave.o)
                0x00800b84                zwave_led
                0x00800b85                zwave_time_btn_release
                0x00800b89                zwave_time_btn_push
                0x00800b8d                zwave_time_btn_interrupt
                0x00800b91                zwave_learn_on
                0x00800b92                zwave_btn_is_release
                0x00800b93                zwave_btn_is_push
                0x00800b94                zwave_mode
                0x00800b95                zwave_learn_block
                0x00800b96                zwsend_ack_got
                0x00800b98                ack_got
                0x00800b99                last_node
                0x00800b9a                radio_zwave_my_address_loaded
                0x00800b9b                radio_zwave_my_address
 .bss           0x00800b9c        0xc darjeeling.a(radio_zwave_platform_dependent.o)
 .bss           0x00800ba8        0x1 darjeeling.a(uart.o)
                0x00800ba8                uart_openlog
 .bss           0x00800ba9        0x0 /usr/local/CrossPack-AVR-20131216/lib/gcc/avr/4.8.1/avr6/libgcc.a(_mulsi3.o)
 .bss           0x00800ba9        0x0 /usr/local/CrossPack-AVR-20131216/lib/gcc/avr/4.8.1/avr6/libgcc.a(_udivmodhi4.o)
 .bss           0x00800ba9        0x0 /usr/local/CrossPack-AVR-20131216/lib/gcc/avr/4.8.1/avr6/libgcc.a(_udivmodsi4.o)
 .bss           0x00800ba9        0x0 /usr/local/CrossPack-AVR-20131216/lib/gcc/avr/4.8.1/avr6/libgcc.a(_divmodsi4.o)
 .bss           0x00800ba9        0x0 /usr/local/CrossPack-AVR-20131216/lib/gcc/avr/4.8.1/avr6/libgcc.a(_negsi2.o)
 .bss           0x00800ba9        0x0 /usr/local/CrossPack-AVR-20131216/lib/gcc/avr/4.8.1/avr6/libgcc.a(_exit.o)
 .bss           0x00800ba9        0x0 /usr/local/CrossPack-AVR-20131216/lib/gcc/avr/4.8.1/avr6/libgcc.a(_tablejump.o)
 .bss           0x00800ba9        0x0 /usr/local/CrossPack-AVR-20131216/lib/gcc/avr/4.8.1/avr6/libgcc.a(_copy_data.o)
 .bss           0x00800ba9        0x0 /usr/local/CrossPack-AVR-20131216/lib/gcc/avr/4.8.1/avr6/libgcc.a(_clear_bss.o)
 .bss           0x00800ba9        0x0 /usr/local/CrossPack-AVR-20131216/lib/gcc/avr/4.8.1/avr6/libgcc.a(_muluhisi3.o)
 .bss           0x00800ba9        0x0 /usr/local/CrossPack-AVR-20131216/lib/gcc/avr/4.8.1/avr6/libgcc.a(_muldi3.o)
 .bss           0x00800ba9        0x0 /usr/local/CrossPack-AVR-20131216/lib/gcc/avr/4.8.1/avr6/libgcc.a(_muldi3_6.o)
 .bss           0x00800ba9        0x0 /usr/local/CrossPack-AVR-20131216/lib/gcc/avr/4.8.1/avr6/libgcc.a(_divdi3.o)
 .bss           0x00800ba9        0x0 /usr/local/CrossPack-AVR-20131216/lib/gcc/avr/4.8.1/avr6/libgcc.a(_udivdi3.o)
 .bss           0x00800ba9        0x0 /usr/local/CrossPack-AVR-20131216/lib/gcc/avr/4.8.1/avr6/libgcc.a(_udivmod64.o)
 .bss           0x00800ba9        0x0 /usr/local/CrossPack-AVR-20131216/lib/gcc/avr/4.8.1/avr6/libgcc.a(_negdi2.o)
 .bss           0x00800ba9        0x0 /usr/local/CrossPack-AVR-20131216/lib/gcc/avr/4.8.1/avr6/libgcc.a(_prologue.o)
 .bss           0x00800ba9        0x0 /usr/local/CrossPack-AVR-20131216/lib/gcc/avr/4.8.1/avr6/libgcc.a(_epilogue.o)
 .bss           0x00800ba9        0x0 /usr/local/CrossPack-AVR-20131216/lib/gcc/avr/4.8.1/avr6/libgcc.a(_ashldi3.o)
 .bss           0x00800ba9        0x0 /usr/local/CrossPack-AVR-20131216/lib/gcc/avr/4.8.1/avr6/libgcc.a(_ashrdi3.o)
 .bss           0x00800ba9        0x0 /usr/local/CrossPack-AVR-20131216/lib/gcc/avr/4.8.1/avr6/libgcc.a(_adddi3.o)
 .bss           0x00800ba9        0x0 /usr/local/CrossPack-AVR-20131216/lib/gcc/avr/4.8.1/avr6/libgcc.a(_subdi3.o)
 .bss           0x00800ba9        0x0 /usr/local/CrossPack-AVR-20131216/lib/gcc/avr/4.8.1/avr6/libgcc.a(_cmpdi2.o)
 .bss           0x00800ba9        0x0 /usr/local/CrossPack-AVR-20131216/lib/gcc/avr/4.8.1/avr6/libgcc.a(_cmpdi2_s8.o)
 .bss           0x00800ba9        0x0 /usr/local/CrossPack-AVR-20131216/lib/gcc/avr/4.8.1/avr6/libgcc.a(_umulhisi3.o)
 .bss           0x00800ba9        0x0 /usr/local/CrossPack-AVR-20131216/lib/gcc/avr/4.8.1/../../../../avr/lib/avr6/libm.a(addsf3.o)
 .bss           0x00800ba9        0x0 /usr/local/CrossPack-AVR-20131216/lib/gcc/avr/4.8.1/../../../../avr/lib/avr6/libm.a(addsf3x.o)
 .bss           0x00800ba9        0x0 /usr/local/CrossPack-AVR-20131216/lib/gcc/avr/4.8.1/../../../../avr/lib/avr6/libm.a(divsf3.o)
 .bss           0x00800ba9        0x0 /usr/local/CrossPack-AVR-20131216/lib/gcc/avr/4.8.1/../../../../avr/lib/avr6/libm.a(divsf3x.o)
 .bss           0x00800ba9        0x0 /usr/local/CrossPack-AVR-20131216/lib/gcc/avr/4.8.1/../../../../avr/lib/avr6/libm.a(fixsfsi.o)
 .bss           0x00800ba9        0x0 /usr/local/CrossPack-AVR-20131216/lib/gcc/avr/4.8.1/../../../../avr/lib/avr6/libm.a(fixunssfsi.o)
 .bss           0x00800ba9        0x0 /usr/local/CrossPack-AVR-20131216/lib/gcc/avr/4.8.1/../../../../avr/lib/avr6/libm.a(floatsisf.o)
 .bss           0x00800ba9        0x0 /usr/local/CrossPack-AVR-20131216/lib/gcc/avr/4.8.1/../../../../avr/lib/avr6/libm.a(fp_inf.o)
 .bss           0x00800ba9        0x0 /usr/local/CrossPack-AVR-20131216/lib/gcc/avr/4.8.1/../../../../avr/lib/avr6/libm.a(fp_nan.o)
 .bss           0x00800ba9        0x0 /usr/local/CrossPack-AVR-20131216/lib/gcc/avr/4.8.1/../../../../avr/lib/avr6/libm.a(fp_pscA.o)
 .bss           0x00800ba9        0x0 /usr/local/CrossPack-AVR-20131216/lib/gcc/avr/4.8.1/../../../../avr/lib/avr6/libm.a(fp_pscB.o)
 .bss           0x00800ba9        0x0 /usr/local/CrossPack-AVR-20131216/lib/gcc/avr/4.8.1/../../../../avr/lib/avr6/libm.a(fp_round.o)
 .bss           0x00800ba9        0x0 /usr/local/CrossPack-AVR-20131216/lib/gcc/avr/4.8.1/../../../../avr/lib/avr6/libm.a(fp_split3.o)
 .bss           0x00800ba9        0x0 /usr/local/CrossPack-AVR-20131216/lib/gcc/avr/4.8.1/../../../../avr/lib/avr6/libm.a(fp_zero.o)
 .bss           0x00800ba9        0x0 /usr/local/CrossPack-AVR-20131216/lib/gcc/avr/4.8.1/../../../../avr/lib/avr6/libm.a(mulsf3.o)
 .bss           0x00800ba9        0x0 /usr/local/CrossPack-AVR-20131216/lib/gcc/avr/4.8.1/../../../../avr/lib/avr6/libm.a(mulsf3x.o)
 .bss           0x00800ba9        0x0 /usr/local/CrossPack-AVR-20131216/lib/gcc/avr/4.8.1/../../../../avr/lib/avr6/libm.a(pow.o)
 .bss           0x00800ba9        0x0 /usr/local/CrossPack-AVR-20131216/lib/gcc/avr/4.8.1/../../../../avr/lib/avr6/libm.a(exp.o)
 .bss           0x00800ba9        0x0 /usr/local/CrossPack-AVR-20131216/lib/gcc/avr/4.8.1/../../../../avr/lib/avr6/libm.a(fp_powser.o)
 .bss           0x00800ba9        0x0 /usr/local/CrossPack-AVR-20131216/lib/gcc/avr/4.8.1/../../../../avr/lib/avr6/libm.a(inverse.o)
 .bss           0x00800ba9        0x0 /usr/local/CrossPack-AVR-20131216/lib/gcc/avr/4.8.1/../../../../avr/lib/avr6/libm.a(ldexp.o)
 .bss           0x00800ba9        0x0 /usr/local/CrossPack-AVR-20131216/lib/gcc/avr/4.8.1/../../../../avr/lib/avr6/libm.a(log.o)
 .bss           0x00800ba9        0x0 /usr/local/CrossPack-AVR-20131216/lib/gcc/avr/4.8.1/../../../../avr/lib/avr6/libm.a(modf.o)
 .bss           0x00800ba9        0x0 /usr/local/CrossPack-AVR-20131216/lib/gcc/avr/4.8.1/../../../../avr/lib/avr6/libm.a(fp_mpack.o)
 .bss           0x00800ba9        0x0 /usr/local/CrossPack-AVR-20131216/lib/gcc/avr/4.8.1/../../../../avr/lib/avr6/libc.a(memcpy.o)
 .bss           0x00800ba9        0x0 /usr/local/CrossPack-AVR-20131216/lib/gcc/avr/4.8.1/../../../../avr/lib/avr6/libc.a(memmove.o)
 .bss           0x00800ba9        0x0 /usr/local/CrossPack-AVR-20131216/lib/gcc/avr/4.8.1/../../../../avr/lib/avr6/libc.a(memset.o)
 .bss           0x00800ba9        0x0 /usr/local/CrossPack-AVR-20131216/lib/gcc/avr/4.8.1/../../../../avr/lib/avr6/libc.a(snprintf.o)
 .bss           0x00800ba9        0x0 /usr/local/CrossPack-AVR-20131216/lib/gcc/avr/4.8.1/../../../../avr/lib/avr6/libc.a(vsnprintf.o)
 .bss           0x00800ba9        0x0 /usr/local/CrossPack-AVR-20131216/lib/gcc/avr/4.8.1/../../../../avr/lib/avr6/libc.a(vfprintf_std.o)
 .bss           0x00800ba9        0x0 /usr/local/CrossPack-AVR-20131216/lib/gcc/avr/4.8.1/../../../../avr/lib/avr6/libc.a(eerd_block_atmega2560.o)
 .bss           0x00800ba9        0x0 /usr/local/CrossPack-AVR-20131216/lib/gcc/avr/4.8.1/../../../../avr/lib/avr6/libc.a(eerd_byte_atmega2560.o)
 .bss           0x00800ba9        0x0 /usr/local/CrossPack-AVR-20131216/lib/gcc/avr/4.8.1/../../../../avr/lib/avr6/libc.a(eerd_word_atmega2560.o)
 .bss           0x00800ba9        0x0 /usr/local/CrossPack-AVR-20131216/lib/gcc/avr/4.8.1/../../../../avr/lib/avr6/libc.a(eeupd_block_atmega2560.o)
 .bss           0x00800ba9        0x0 /usr/local/CrossPack-AVR-20131216/lib/gcc/avr/4.8.1/../../../../avr/lib/avr6/libc.a(eeupd_byte_atmega2560.o)
 .bss           0x00800ba9        0x0 /usr/local/CrossPack-AVR-20131216/lib/gcc/avr/4.8.1/../../../../avr/lib/avr6/libc.a(eeupd_word_atmega2560.o)
 .bss           0x00800ba9        0x0 /usr/local/CrossPack-AVR-20131216/lib/gcc/avr/4.8.1/../../../../avr/lib/avr6/libc.a(strnlen_P.o)
 .bss           0x00800ba9        0x0 /usr/local/CrossPack-AVR-20131216/lib/gcc/avr/4.8.1/../../../../avr/lib/avr6/libc.a(strnlen.o)
 .bss           0x00800ba9        0x0 /usr/local/CrossPack-AVR-20131216/lib/gcc/avr/4.8.1/../../../../avr/lib/avr6/libc.a(fputc.o)
 .bss           0x00800ba9        0x0 /usr/local/CrossPack-AVR-20131216/lib/gcc/avr/4.8.1/../../../../avr/lib/avr6/libc.a(ultoa_invert.o)
 *(.bss*)
 *(COMMON)
 COMMON         0x00800ba9     0x1000 darjeeling.a(main.o)
                0x00800ba9                mem
 COMMON         0x00801ba9        0x1 darjeeling.a(core.o)
                0x00801ba9                dj_exec_runlevel
 COMMON         0x00801baa        0x2 darjeeling.a(djarchive.o)
                0x00801baa                di_app_archive
 COMMON         0x00801bac       0x10 darjeeling.a(vm_init.o)
                0x00801bac                vm_updatePointersHook
                0x00801bb0                vm_postGCHook
                0x00801bb4                vm_markObjectHook
                0x00801bb8                vm_markRootSetHook
 COMMON         0x00801bbc        0x4 darjeeling.a(wkcomm_init.o)
                0x00801bbc                wkcomm_pollingHook
 COMMON         0x00801bc0        0xc darjeeling.a(wkpf_init.o)
                0x00801bc0                wkpf_comm_handleMessageHook
                0x00801bc4                wkpf_updatePointersHook
                0x00801bc8                wkpf_markRootSetHook
 COMMON         0x00801bcc        0x4 darjeeling.a(wkreprog_init.o)
                0x00801bcc                wkreprog_comm_handleMessageHook
 COMMON         0x00801bd0        0xd darjeeling.a(wkcomm.o)
                0x00801bd0                wkcomm_wait_reply_commands
                0x00801bd2                wkcomm_wait_reply_seqnr
                0x00801bd4                wkcomm_wait_reply_number_of_commands
                0x00801bd5                wkcomm_received_reply
 COMMON         0x00801bdd      0x100 darjeeling.a(wkreprog_impl.o)
                0x00801bdd                avr_flash_pagebuffer
 COMMON         0x00801cdd       0x39 darjeeling.a(radio_zwave.o)
                0x00801cdd                payload_length
                0x00801cde                radio_zwave_receive_buffer
                0x00801d0d                type
                0x00801d0e                state
                0x00801d0f                zwave_time_learn_start
                0x00801d13                seq
                0x00801d14                len
                0x00801d15                cmd
 COMMON         0x00801d16      0x108 darjeeling.a(uart.o)
                0x00801d16                uart_wr
                0x00801d1a                uart_buf
                0x00801e1a                uart_rd
                0x00801e1e                PROVIDE (__bss_end, .)
                0x00012e5c                __data_load_start = LOADADDR (.data)
                0x000136f0                __data_load_end = (__data_load_start + SIZEOF (.data))

.noinit         0x00801e1e        0x0
                0x00801e1e                PROVIDE (__noinit_start, .)
 *(.noinit*)
                0x00801e1e                PROVIDE (__noinit_end, .)
                0x00801e1e                _end = .
                0x00801e1e                PROVIDE (__heap_start, .)

.eeprom         0x00810000       0x83
 *(.eeprom*)
 .eeprom        0x00810000       0x83 darjeeling.a(wkpf_config.o)
                0x00810083                __eeprom_end = .

.fuse
 *(.fuse)
 *(.lfuse)
 *(.hfuse)
 *(.efuse)

.lock
 *(.lock*)

.signature
 *(.signature*)

.user_signatures
 *(.user_signatures*)

.stab
 *(.stab)

.stabstr
 *(.stabstr)

.stab.excl
 *(.stab.excl)

.stab.exclstr
 *(.stab.exclstr)

.stab.index
 *(.stab.index)

.stab.indexstr
 *(.stab.indexstr)

.comment        0x00000000       0x11
 *(.comment)
 .comment       0x00000000       0x11 darjeeling.a(main.o)
                                 0x12 (size before relaxing)
 .comment       0x00000000       0x12 darjeeling.a(avr.o)
 .comment       0x00000000       0x12 darjeeling.a(core.o)
 .comment       0x00000000       0x12 darjeeling.a(debug.o)
 .comment       0x00000000       0x12 darjeeling.a(djarchive.o)
 .comment       0x00000000       0x12 darjeeling.a(djtimer.o)
 .comment       0x00000000       0x12 darjeeling.a(heap.o)
 .comment       0x00000000       0x12 darjeeling.a(hooks.o)
 .comment       0x00000000       0x12 darjeeling.a(panic.o)
 .comment       0x00000000       0x12 darjeeling.a(vm.o)
 .comment       0x00000000       0x12 darjeeling.a(vm_gc.o)
 .comment       0x00000000       0x12 darjeeling.a(vmthread.o)
 .comment       0x00000000       0x12 darjeeling.a(app_infusions.o)
 .comment       0x00000000       0x12 darjeeling.a(lib_infusions.o)
 .comment       0x00000000       0x12 darjeeling.a(GENERATEDlibinit.o)
 .comment       0x00000000       0x12 darjeeling.a(array.o)
 .comment       0x00000000       0x12 darjeeling.a(base_init.o)
 .comment       0x00000000       0x12 darjeeling.a(darjeeling3_init.o)
 .comment       0x00000000       0x12 darjeeling.a(execution.o)
 .comment       0x00000000       0x12 darjeeling.a(global_id.o)
 .comment       0x00000000       0x12 darjeeling.a(infusion.o)
 .comment       0x00000000       0x12 darjeeling.a(jlib_base.o)
 .comment       0x00000000       0x12 darjeeling.a(jlib_darjeeling3.o)
 .comment       0x00000000       0x12 darjeeling.a(jlib_wkpf_virtual.o)
 .comment       0x00000000       0x12 darjeeling.a(jstring.o)
 .comment       0x00000000       0x12 darjeeling.a(object.o)
 .comment       0x00000000       0x12 darjeeling.a(uart_init.o)
 .comment       0x00000000       0x12 darjeeling.a(util.o)
 .comment       0x00000000       0x12 darjeeling.a(vm_init.o)
 .comment       0x00000000       0x12 darjeeling.a(wkcomm_init.o)
 .comment       0x00000000       0x12 darjeeling.a(wkpf_init.o)
 .comment       0x00000000       0x12 darjeeling.a(wkpf_virtual_init.o)
 .comment       0x00000000       0x12 darjeeling.a(wkreprog_init.o)
 .comment       0x00000000       0x12 darjeeling.a(GENERATEDnative_wuclasses.o)
 .comment       0x00000000       0x12 darjeeling.a(GENERATEDwuclass_ir_sensor.o)
 .comment       0x00000000       0x12 darjeeling.a(GENERATEDwuclass_led.o)
 .comment       0x00000000       0x12 darjeeling.a(GENERATEDwuclass_magnetic_sensor.o)
 .comment       0x00000000       0x12 darjeeling.a(GENERATEDwuclass_or_gate.o)
 .comment       0x00000000       0x12 darjeeling.a(GENERATEDwuclass_pir_sensor.o)
 .comment       0x00000000       0x12 darjeeling.a(GENERATEDwuclass_ultrasound_sensor.o)
 .comment       0x00000000       0x12 darjeeling.a(java_lang_Object.o)
 .comment       0x00000000       0x12 darjeeling.a(java_lang_Runtime.o)
 .comment       0x00000000       0x12 darjeeling.a(java_lang_System.o)
 .comment       0x00000000       0x12 darjeeling.a(java_lang_Thread.o)
 .comment       0x00000000       0x12 darjeeling.a(javax_darjeeling_Darjeeling.o)
 .comment       0x00000000       0x12 darjeeling.a(javax_darjeeling_vm_Infusion.o)
 .comment       0x00000000       0x12 darjeeling.a(javax_wukong_wkpf_WKPF.o)
 .comment       0x00000000       0x12 darjeeling.a(routing_none.o)
 .comment       0x00000000       0x12 darjeeling.a(wkcomm.o)
 .comment       0x00000000       0x12 darjeeling.a(wkpf_comm.o)
 .comment       0x00000000       0x12 darjeeling.a(wkpf_config.o)
 .comment       0x00000000       0x12 darjeeling.a(wkpf_gc.o)
 .comment       0x00000000       0x12 darjeeling.a(wkpf_links.o)
 .comment       0x00000000       0x12 darjeeling.a(wkpf_main.o)
 .comment       0x00000000       0x12 darjeeling.a(wkpf_properties.o)
 .comment       0x00000000       0x12 darjeeling.a(wkpf_virtual_wuclasses.o)
 .comment       0x00000000       0x12 darjeeling.a(wkpf_wuclasses.o)
 .comment       0x00000000       0x12 darjeeling.a(wkpf_wuobjects.o)
 .comment       0x00000000       0x12 darjeeling.a(wkreprog.o)
 .comment       0x00000000       0x12 darjeeling.a(wkreprog_comm.o)
 .comment       0x00000000       0x12 darjeeling.a(wkreprog_impl.o)
 .comment       0x00000000       0x12 darjeeling.a(wuclass_LED_update.o)
 .comment       0x00000000       0x12 darjeeling.a(wuclass_ir_sensor_update.o)
 .comment       0x00000000       0x12 darjeeling.a(wuclass_magnetic_sensor_update.o)
 .comment       0x00000000       0x12 darjeeling.a(wuclass_or_gate_update.o)
 .comment       0x00000000       0x12 darjeeling.a(wuclass_pir_sensor.o)
 .comment       0x00000000       0x12 darjeeling.a(wuclass_ultrasound_sensor_update.o)
 .comment       0x00000000       0x12 darjeeling.a(radio_zwave.o)
 .comment       0x00000000       0x12 darjeeling.a(radio_zwave_platform_dependent.o)
 .comment       0x00000000       0x12 darjeeling.a(uart.o)
 .comment       0x00000000       0x12 /usr/local/CrossPack-AVR-20131216/lib/gcc/avr/4.8.1/../../../../avr/lib/avr6/libc.a(snprintf.o)
 .comment       0x00000000       0x12 /usr/local/CrossPack-AVR-20131216/lib/gcc/avr/4.8.1/../../../../avr/lib/avr6/libc.a(vsnprintf.o)
 .comment       0x00000000       0x12 /usr/local/CrossPack-AVR-20131216/lib/gcc/avr/4.8.1/../../../../avr/lib/avr6/libc.a(vfprintf_std.o)
 .comment       0x00000000       0x12 /usr/local/CrossPack-AVR-20131216/lib/gcc/avr/4.8.1/../../../../avr/lib/avr6/libc.a(fputc.o)

.debug
 *(.debug)

.line
 *(.line)

.debug_srcinfo
 *(.debug_srcinfo)

.debug_sfnames
 *(.debug_sfnames)

.debug_aranges  0x00000000      0xb88
 *(.debug_aranges)
 .debug_aranges
                0x00000000       0x20 darjeeling.a(main.o)
 .debug_aranges
                0x00000020       0x20 darjeeling.a(avr.o)
 .debug_aranges
                0x00000040       0x20 darjeeling.a(core.o)
 .debug_aranges
                0x00000060       0x20 darjeeling.a(debug.o)
 .debug_aranges
                0x00000080       0x20 darjeeling.a(djarchive.o)
 .debug_aranges
                0x000000a0       0x20 darjeeling.a(djtimer.o)
 .debug_aranges
                0x000000c0       0x20 darjeeling.a(heap.o)
 .debug_aranges
                0x000000e0       0x20 darjeeling.a(hooks.o)
 .debug_aranges
                0x00000100       0x20 darjeeling.a(panic.o)
 .debug_aranges
                0x00000120       0x20 darjeeling.a(vm.o)
 .debug_aranges
                0x00000140       0x20 darjeeling.a(vm_gc.o)
 .debug_aranges
                0x00000160       0x20 darjeeling.a(vmthread.o)
 .debug_aranges
                0x00000180       0x20 darjeeling.a(GENERATEDlibinit.o)
 .debug_aranges
                0x000001a0       0x20 darjeeling.a(array.o)
 .debug_aranges
                0x000001c0       0x20 darjeeling.a(base_init.o)
 .debug_aranges
                0x000001e0       0x20 darjeeling.a(darjeeling3_init.o)
 .debug_aranges
                0x00000200       0x20 darjeeling.a(execution.o)
 .debug_aranges
                0x00000220       0x20 darjeeling.a(global_id.o)
 .debug_aranges
                0x00000240       0x20 darjeeling.a(infusion.o)
 .debug_aranges
                0x00000260       0x20 darjeeling.a(jlib_base.o)
 .debug_aranges
                0x00000280       0x20 darjeeling.a(jlib_darjeeling3.o)
 .debug_aranges
                0x000002a0       0x20 darjeeling.a(jlib_wkpf_virtual.o)
 .debug_aranges
                0x000002c0       0x20 darjeeling.a(jstring.o)
 .debug_aranges
                0x000002e0       0x20 darjeeling.a(object.o)
 .debug_aranges
                0x00000300       0x20 darjeeling.a(uart_init.o)
 .debug_aranges
                0x00000320       0x20 darjeeling.a(util.o)
 .debug_aranges
                0x00000340       0x20 darjeeling.a(vm_init.o)
 .debug_aranges
                0x00000360       0x20 darjeeling.a(wkcomm_init.o)
 .debug_aranges
                0x00000380       0x20 darjeeling.a(wkpf_init.o)
 .debug_aranges
                0x000003a0       0x20 darjeeling.a(wkpf_virtual_init.o)
 .debug_aranges
                0x000003c0       0x20 darjeeling.a(wkreprog_init.o)
 .debug_aranges
                0x000003e0       0x20 darjeeling.a(GENERATEDnative_wuclasses.o)
 .debug_aranges
                0x00000400       0x18 darjeeling.a(GENERATEDwuclass_ir_sensor.o)
 .debug_aranges
                0x00000418       0x20 darjeeling.a(GENERATEDwuclass_led.o)
 .debug_aranges
                0x00000438       0x18 darjeeling.a(GENERATEDwuclass_magnetic_sensor.o)
 .debug_aranges
                0x00000450       0x20 darjeeling.a(GENERATEDwuclass_or_gate.o)
 .debug_aranges
                0x00000470       0x18 darjeeling.a(GENERATEDwuclass_pir_sensor.o)
 .debug_aranges
                0x00000488       0x18 darjeeling.a(GENERATEDwuclass_ultrasound_sensor.o)
 .debug_aranges
                0x000004a0       0x20 darjeeling.a(java_lang_Object.o)
 .debug_aranges
                0x000004c0       0x20 darjeeling.a(java_lang_Runtime.o)
 .debug_aranges
                0x000004e0       0x20 darjeeling.a(java_lang_System.o)
 .debug_aranges
                0x00000500       0x20 darjeeling.a(java_lang_Thread.o)
 .debug_aranges
                0x00000520       0x20 darjeeling.a(javax_darjeeling_Darjeeling.o)
 .debug_aranges
                0x00000540       0x20 darjeeling.a(javax_darjeeling_vm_Infusion.o)
 .debug_aranges
                0x00000560       0x20 darjeeling.a(javax_wukong_wkpf_WKPF.o)
 .debug_aranges
                0x00000580       0x20 darjeeling.a(routing_none.o)
 .debug_aranges
                0x000005a0       0x20 darjeeling.a(wkcomm.o)
 .debug_aranges
                0x000005c0       0x20 darjeeling.a(wkpf_comm.o)
 .debug_aranges
                0x000005e0       0x20 darjeeling.a(wkpf_config.o)
 .debug_aranges
                0x00000600       0x20 darjeeling.a(wkpf_gc.o)
 .debug_aranges
                0x00000620       0x20 darjeeling.a(wkpf_links.o)
 .debug_aranges
                0x00000640       0x20 darjeeling.a(wkpf_main.o)
 .debug_aranges
                0x00000660       0x20 darjeeling.a(wkpf_properties.o)
 .debug_aranges
                0x00000680       0x20 darjeeling.a(wkpf_virtual_wuclasses.o)
 .debug_aranges
                0x000006a0       0x20 darjeeling.a(wkpf_wuclasses.o)
 .debug_aranges
                0x000006c0       0x20 darjeeling.a(wkpf_wuobjects.o)
 .debug_aranges
                0x000006e0       0x20 darjeeling.a(wkreprog.o)
 .debug_aranges
                0x00000700       0x20 darjeeling.a(wkreprog_comm.o)
 .debug_aranges
                0x00000720       0x28 darjeeling.a(wkreprog_impl.o)
 .debug_aranges
                0x00000748       0x20 darjeeling.a(wuclass_LED_update.o)
 .debug_aranges
                0x00000768       0x20 darjeeling.a(wuclass_ir_sensor_update.o)
 .debug_aranges
                0x00000788       0x20 darjeeling.a(wuclass_magnetic_sensor_update.o)
 .debug_aranges
                0x000007a8       0x20 darjeeling.a(wuclass_or_gate_update.o)
 .debug_aranges
                0x000007c8       0x20 darjeeling.a(wuclass_pir_sensor.o)
 .debug_aranges
                0x000007e8       0x20 darjeeling.a(wuclass_ultrasound_sensor_update.o)
 .debug_aranges
                0x00000808       0x20 darjeeling.a(radio_zwave.o)
 .debug_aranges
                0x00000828       0x20 darjeeling.a(radio_zwave_platform_dependent.o)
 .debug_aranges
                0x00000848       0x20 darjeeling.a(uart.o)
 .debug_aranges
                0x00000868       0x20 /usr/local/CrossPack-AVR-20131216/lib/gcc/avr/4.8.1/avr6/libgcc.a(_mulsi3.o)
 .debug_aranges
                0x00000888       0x20 /usr/local/CrossPack-AVR-20131216/lib/gcc/avr/4.8.1/avr6/libgcc.a(_udivmodhi4.o)
 .debug_aranges
                0x000008a8       0x20 /usr/local/CrossPack-AVR-20131216/lib/gcc/avr/4.8.1/avr6/libgcc.a(_udivmodsi4.o)
 .debug_aranges
                0x000008c8       0x20 /usr/local/CrossPack-AVR-20131216/lib/gcc/avr/4.8.1/avr6/libgcc.a(_divmodsi4.o)
 .debug_aranges
                0x000008e8       0x20 /usr/local/CrossPack-AVR-20131216/lib/gcc/avr/4.8.1/avr6/libgcc.a(_negsi2.o)
 .debug_aranges
                0x00000908       0x20 /usr/local/CrossPack-AVR-20131216/lib/gcc/avr/4.8.1/avr6/libgcc.a(_exit.o)
 .debug_aranges
                0x00000928       0x20 /usr/local/CrossPack-AVR-20131216/lib/gcc/avr/4.8.1/avr6/libgcc.a(_tablejump.o)
 .debug_aranges
                0x00000948       0x20 /usr/local/CrossPack-AVR-20131216/lib/gcc/avr/4.8.1/avr6/libgcc.a(_copy_data.o)
 .debug_aranges
                0x00000968       0x20 /usr/local/CrossPack-AVR-20131216/lib/gcc/avr/4.8.1/avr6/libgcc.a(_clear_bss.o)
 .debug_aranges
                0x00000988       0x20 /usr/local/CrossPack-AVR-20131216/lib/gcc/avr/4.8.1/avr6/libgcc.a(_muluhisi3.o)
 .debug_aranges
                0x000009a8       0x20 /usr/local/CrossPack-AVR-20131216/lib/gcc/avr/4.8.1/avr6/libgcc.a(_muldi3.o)
 .debug_aranges
                0x000009c8       0x20 /usr/local/CrossPack-AVR-20131216/lib/gcc/avr/4.8.1/avr6/libgcc.a(_muldi3_6.o)
 .debug_aranges
                0x000009e8       0x20 /usr/local/CrossPack-AVR-20131216/lib/gcc/avr/4.8.1/avr6/libgcc.a(_divdi3.o)
 .debug_aranges
                0x00000a08       0x20 /usr/local/CrossPack-AVR-20131216/lib/gcc/avr/4.8.1/avr6/libgcc.a(_udivdi3.o)
 .debug_aranges
                0x00000a28       0x20 /usr/local/CrossPack-AVR-20131216/lib/gcc/avr/4.8.1/avr6/libgcc.a(_udivmod64.o)
 .debug_aranges
                0x00000a48       0x20 /usr/local/CrossPack-AVR-20131216/lib/gcc/avr/4.8.1/avr6/libgcc.a(_negdi2.o)
 .debug_aranges
                0x00000a68       0x20 /usr/local/CrossPack-AVR-20131216/lib/gcc/avr/4.8.1/avr6/libgcc.a(_prologue.o)
 .debug_aranges
                0x00000a88       0x20 /usr/local/CrossPack-AVR-20131216/lib/gcc/avr/4.8.1/avr6/libgcc.a(_epilogue.o)
 .debug_aranges
                0x00000aa8       0x20 /usr/local/CrossPack-AVR-20131216/lib/gcc/avr/4.8.1/avr6/libgcc.a(_ashldi3.o)
 .debug_aranges
                0x00000ac8       0x20 /usr/local/CrossPack-AVR-20131216/lib/gcc/avr/4.8.1/avr6/libgcc.a(_ashrdi3.o)
 .debug_aranges
                0x00000ae8       0x20 /usr/local/CrossPack-AVR-20131216/lib/gcc/avr/4.8.1/avr6/libgcc.a(_adddi3.o)
 .debug_aranges
                0x00000b08       0x20 /usr/local/CrossPack-AVR-20131216/lib/gcc/avr/4.8.1/avr6/libgcc.a(_subdi3.o)
 .debug_aranges
                0x00000b28       0x20 /usr/local/CrossPack-AVR-20131216/lib/gcc/avr/4.8.1/avr6/libgcc.a(_cmpdi2.o)
 .debug_aranges
                0x00000b48       0x20 /usr/local/CrossPack-AVR-20131216/lib/gcc/avr/4.8.1/avr6/libgcc.a(_cmpdi2_s8.o)
 .debug_aranges
                0x00000b68       0x20 /usr/local/CrossPack-AVR-20131216/lib/gcc/avr/4.8.1/avr6/libgcc.a(_umulhisi3.o)

.debug_pubnames
 *(.debug_pubnames)

.debug_info     0x00000000    0x22549
 *(.debug_info)
 .debug_info    0x00000000      0x464 darjeeling.a(main.o)
 .debug_info    0x00000464      0x3be darjeeling.a(avr.o)
 .debug_info    0x00000822      0x19b darjeeling.a(core.o)
 .debug_info    0x000009bd      0x4ab darjeeling.a(debug.o)
 .debug_info    0x00000e68      0x186 darjeeling.a(djarchive.o)
 .debug_info    0x00000fee      0x137 darjeeling.a(djtimer.o)
 .debug_info    0x00001125      0x8e9 darjeeling.a(heap.o)
 .debug_info    0x00001a0e      0x1b0 darjeeling.a(hooks.o)
 .debug_info    0x00001bbe      0x20c darjeeling.a(panic.o)
 .debug_info    0x00001dca     0x2110 darjeeling.a(vm.o)
 .debug_info    0x00003eda      0xebc darjeeling.a(vm_gc.o)
 .debug_info    0x00004d96      0xf69 darjeeling.a(vmthread.o)
 .debug_info    0x00005cff      0x36f darjeeling.a(GENERATEDlibinit.o)
 .debug_info    0x0000606e      0x608 darjeeling.a(array.o)
 .debug_info    0x00006676       0x38 darjeeling.a(base_init.o)
 .debug_info    0x000066ae       0x38 darjeeling.a(darjeeling3_init.o)
 .debug_info    0x000066e6     0x6441 darjeeling.a(execution.o)
 .debug_info    0x0000cb27     0x13af darjeeling.a(global_id.o)
 .debug_info    0x0000ded6      0xaae darjeeling.a(infusion.o)
 .debug_info    0x0000e984      0x475 darjeeling.a(jlib_base.o)
 .debug_info    0x0000edf9      0x2fe darjeeling.a(jlib_darjeeling3.o)
 .debug_info    0x0000f0f7      0x3df darjeeling.a(jlib_wkpf_virtual.o)
 .debug_info    0x0000f4d6      0xa40 darjeeling.a(jstring.o)
 .debug_info    0x0000ff16      0x269 darjeeling.a(object.o)
 .debug_info    0x0001017f       0x38 darjeeling.a(uart_init.o)
 .debug_info    0x000101b7      0x1ae darjeeling.a(util.o)
 .debug_info    0x00010365      0x1de darjeeling.a(vm_init.o)
 .debug_info    0x00010543      0x145 darjeeling.a(wkcomm_init.o)
 .debug_info    0x00010688      0x225 darjeeling.a(wkpf_init.o)
 .debug_info    0x000108ad       0x37 darjeeling.a(wkpf_virtual_init.o)
 .debug_info    0x000108e4      0x12d darjeeling.a(wkreprog_init.o)
 .debug_info    0x00010a11      0x529 darjeeling.a(GENERATEDnative_wuclasses.o)
 .debug_info    0x00010f3a      0x1f3 darjeeling.a(GENERATEDwuclass_ir_sensor.o)
 .debug_info    0x0001112d      0x26d darjeeling.a(GENERATEDwuclass_led.o)
 .debug_info    0x0001139a      0x1f3 darjeeling.a(GENERATEDwuclass_magnetic_sensor.o)
 .debug_info    0x0001158d      0x26d darjeeling.a(GENERATEDwuclass_or_gate.o)
 .debug_info    0x000117fa      0x1f3 darjeeling.a(GENERATEDwuclass_pir_sensor.o)
 .debug_info    0x000119ed      0x1f3 darjeeling.a(GENERATEDwuclass_ultrasound_sensor.o)
 .debug_info    0x00011be0      0x9ff darjeeling.a(java_lang_Object.o)
 .debug_info    0x000125df      0x17a darjeeling.a(java_lang_Runtime.o)
 .debug_info    0x00012759      0x97a darjeeling.a(java_lang_System.o)
 .debug_info    0x000130d3      0xa2c darjeeling.a(java_lang_Thread.o)
 .debug_info    0x00013aff      0x933 darjeeling.a(javax_darjeeling_Darjeeling.o)
 .debug_info    0x00014432      0xac1 darjeeling.a(javax_darjeeling_vm_Infusion.o)
 .debug_info    0x00014ef3     0x1513 darjeeling.a(javax_wukong_wkpf_WKPF.o)
 .debug_info    0x00016406      0x349 darjeeling.a(routing_none.o)
 .debug_info    0x0001674f      0x759 darjeeling.a(wkcomm.o)
 .debug_info    0x00016ea8     0x193a darjeeling.a(wkpf_comm.o)
 .debug_info    0x000187e2      0x453 darjeeling.a(wkpf_config.o)
 .debug_info    0x00018c35      0x54c darjeeling.a(wkpf_gc.o)
 .debug_info    0x00019181     0x2982 darjeeling.a(wkpf_links.o)
 .debug_info    0x0001bb03      0x6eb darjeeling.a(wkpf_main.o)
 .debug_info    0x0001c1ee      0xadc darjeeling.a(wkpf_properties.o)
 .debug_info    0x0001ccca      0x3be darjeeling.a(wkpf_virtual_wuclasses.o)
 .debug_info    0x0001d088      0x29d darjeeling.a(wkpf_wuclasses.o)
 .debug_info    0x0001d325      0xb7b darjeeling.a(wkpf_wuobjects.o)
 .debug_info    0x0001dea0      0x190 darjeeling.a(wkreprog.o)
 .debug_info    0x0001e030      0x3b7 darjeeling.a(wkreprog_comm.o)
 .debug_info    0x0001e3e7      0x382 darjeeling.a(wkreprog_impl.o)
 .debug_info    0x0001e769      0x51e darjeeling.a(wuclass_LED_update.o)
 .debug_info    0x0001ec87      0x389 darjeeling.a(wuclass_ir_sensor_update.o)
 .debug_info    0x0001f010      0x435 darjeeling.a(wuclass_magnetic_sensor_update.o)
 .debug_info    0x0001f445      0x3a4 darjeeling.a(wuclass_or_gate_update.o)
 .debug_info    0x0001f7e9      0x304 darjeeling.a(wuclass_pir_sensor.o)
 .debug_info    0x0001faed      0x4a8 darjeeling.a(wuclass_ultrasound_sensor_update.o)
 .debug_info    0x0001ff95      0xcec darjeeling.a(radio_zwave.o)
 .debug_info    0x00020c81      0x21f darjeeling.a(radio_zwave_platform_dependent.o)
 .debug_info    0x00020ea0      0x41b darjeeling.a(uart.o)
 .debug_info    0x000212bb       0xbe /usr/local/CrossPack-AVR-20131216/lib/gcc/avr/4.8.1/avr6/libgcc.a(_mulsi3.o)
 .debug_info    0x00021379       0xbe /usr/local/CrossPack-AVR-20131216/lib/gcc/avr/4.8.1/avr6/libgcc.a(_udivmodhi4.o)
 .debug_info    0x00021437       0xbe /usr/local/CrossPack-AVR-20131216/lib/gcc/avr/4.8.1/avr6/libgcc.a(_udivmodsi4.o)
 .debug_info    0x000214f5       0xbe /usr/local/CrossPack-AVR-20131216/lib/gcc/avr/4.8.1/avr6/libgcc.a(_divmodsi4.o)
 .debug_info    0x000215b3       0xbe /usr/local/CrossPack-AVR-20131216/lib/gcc/avr/4.8.1/avr6/libgcc.a(_negsi2.o)
 .debug_info    0x00021671       0xbe /usr/local/CrossPack-AVR-20131216/lib/gcc/avr/4.8.1/avr6/libgcc.a(_exit.o)
 .debug_info    0x0002172f       0xbe /usr/local/CrossPack-AVR-20131216/lib/gcc/avr/4.8.1/avr6/libgcc.a(_tablejump.o)
 .debug_info    0x000217ed       0xbe /usr/local/CrossPack-AVR-20131216/lib/gcc/avr/4.8.1/avr6/libgcc.a(_copy_data.o)
 .debug_info    0x000218ab       0xbe /usr/local/CrossPack-AVR-20131216/lib/gcc/avr/4.8.1/avr6/libgcc.a(_clear_bss.o)
 .debug_info    0x00021969       0xbe /usr/local/CrossPack-AVR-20131216/lib/gcc/avr/4.8.1/avr6/libgcc.a(_muluhisi3.o)
 .debug_info    0x00021a27       0xbe /usr/local/CrossPack-AVR-20131216/lib/gcc/avr/4.8.1/avr6/libgcc.a(_muldi3.o)
 .debug_info    0x00021ae5       0xbe /usr/local/CrossPack-AVR-20131216/lib/gcc/avr/4.8.1/avr6/libgcc.a(_muldi3_6.o)
 .debug_info    0x00021ba3       0xbe /usr/local/CrossPack-AVR-20131216/lib/gcc/avr/4.8.1/avr6/libgcc.a(_divdi3.o)
 .debug_info    0x00021c61       0xbe /usr/local/CrossPack-AVR-20131216/lib/gcc/avr/4.8.1/avr6/libgcc.a(_udivdi3.o)
 .debug_info    0x00021d1f       0xbe /usr/local/CrossPack-AVR-20131216/lib/gcc/avr/4.8.1/avr6/libgcc.a(_udivmod64.o)
 .debug_info    0x00021ddd       0xbe /usr/local/CrossPack-AVR-20131216/lib/gcc/avr/4.8.1/avr6/libgcc.a(_negdi2.o)
 .debug_info    0x00021e9b       0xbe /usr/local/CrossPack-AVR-20131216/lib/gcc/avr/4.8.1/avr6/libgcc.a(_prologue.o)
 .debug_info    0x00021f59       0xbe /usr/local/CrossPack-AVR-20131216/lib/gcc/avr/4.8.1/avr6/libgcc.a(_epilogue.o)
 .debug_info    0x00022017       0xbe /usr/local/CrossPack-AVR-20131216/lib/gcc/avr/4.8.1/avr6/libgcc.a(_ashldi3.o)
 .debug_info    0x000220d5       0xbe /usr/local/CrossPack-AVR-20131216/lib/gcc/avr/4.8.1/avr6/libgcc.a(_ashrdi3.o)
 .debug_info    0x00022193       0xbe /usr/local/CrossPack-AVR-20131216/lib/gcc/avr/4.8.1/avr6/libgcc.a(_adddi3.o)
 .debug_info    0x00022251       0xbe /usr/local/CrossPack-AVR-20131216/lib/gcc/avr/4.8.1/avr6/libgcc.a(_subdi3.o)
 .debug_info    0x0002230f       0xbe /usr/local/CrossPack-AVR-20131216/lib/gcc/avr/4.8.1/avr6/libgcc.a(_cmpdi2.o)
 .debug_info    0x000223cd       0xbe /usr/local/CrossPack-AVR-20131216/lib/gcc/avr/4.8.1/avr6/libgcc.a(_cmpdi2_s8.o)
 .debug_info    0x0002248b       0xbe /usr/local/CrossPack-AVR-20131216/lib/gcc/avr/4.8.1/avr6/libgcc.a(_umulhisi3.o)
 *(.gnu.linkonce.wi.*)

.debug_abbrev   0x00000000     0x6df6
 *(.debug_abbrev)
 .debug_abbrev  0x00000000      0x133 darjeeling.a(main.o)
 .debug_abbrev  0x00000133      0x1aa darjeeling.a(avr.o)
 .debug_abbrev  0x000002dd      0x10d darjeeling.a(core.o)
 .debug_abbrev  0x000003ea      0x184 darjeeling.a(debug.o)
 .debug_abbrev  0x0000056e       0x98 darjeeling.a(djarchive.o)
 .debug_abbrev  0x00000606      0x104 darjeeling.a(djtimer.o)
 .debug_abbrev  0x0000070a      0x3b3 darjeeling.a(heap.o)
 .debug_abbrev  0x00000abd      0x101 darjeeling.a(hooks.o)
 .debug_abbrev  0x00000bbe      0x10b darjeeling.a(panic.o)
 .debug_abbrev  0x00000cc9      0x3d9 darjeeling.a(vm.o)
 .debug_abbrev  0x000010a2      0x320 darjeeling.a(vm_gc.o)
 .debug_abbrev  0x000013c2      0x3b7 darjeeling.a(vmthread.o)
 .debug_abbrev  0x00001779       0xec darjeeling.a(GENERATEDlibinit.o)
 .debug_abbrev  0x00001865      0x1fa darjeeling.a(array.o)
 .debug_abbrev  0x00001a5f       0x2a darjeeling.a(base_init.o)
 .debug_abbrev  0x00001a89       0x2a darjeeling.a(darjeeling3_init.o)
 .debug_abbrev  0x00001ab3      0x652 darjeeling.a(execution.o)
 .debug_abbrev  0x00002105      0x3ce darjeeling.a(global_id.o)
 .debug_abbrev  0x000024d3      0x28b darjeeling.a(infusion.o)
 .debug_abbrev  0x0000275e       0xcf darjeeling.a(jlib_base.o)
 .debug_abbrev  0x0000282d       0xcf darjeeling.a(jlib_darjeeling3.o)
 .debug_abbrev  0x000028fc       0xcf darjeeling.a(jlib_wkpf_virtual.o)
 .debug_abbrev  0x000029cb      0x1c6 darjeeling.a(jstring.o)
 .debug_abbrev  0x00002b91      0x182 darjeeling.a(object.o)
 .debug_abbrev  0x00002d13       0x2a darjeeling.a(uart_init.o)
 .debug_abbrev  0x00002d3d       0xd1 darjeeling.a(util.o)
 .debug_abbrev  0x00002e0e       0xe7 darjeeling.a(vm_init.o)
 .debug_abbrev  0x00002ef5       0xfb darjeeling.a(wkcomm_init.o)
 .debug_abbrev  0x00002ff0      0x13a darjeeling.a(wkpf_init.o)
 .debug_abbrev  0x0000312a       0x28 darjeeling.a(wkpf_virtual_init.o)
 .debug_abbrev  0x00003152       0xda darjeeling.a(wkreprog_init.o)
 .debug_abbrev  0x0000322c      0x14d darjeeling.a(GENERATEDnative_wuclasses.o)
 .debug_abbrev  0x00003379       0x96 darjeeling.a(GENERATEDwuclass_ir_sensor.o)
 .debug_abbrev  0x0000340f       0xf9 darjeeling.a(GENERATEDwuclass_led.o)
 .debug_abbrev  0x00003508       0x96 darjeeling.a(GENERATEDwuclass_magnetic_sensor.o)
 .debug_abbrev  0x0000359e       0xf9 darjeeling.a(GENERATEDwuclass_or_gate.o)
 .debug_abbrev  0x00003697       0x96 darjeeling.a(GENERATEDwuclass_pir_sensor.o)
 .debug_abbrev  0x0000372d       0x96 darjeeling.a(GENERATEDwuclass_ultrasound_sensor.o)
 .debug_abbrev  0x000037c3      0x208 darjeeling.a(java_lang_Object.o)
 .debug_abbrev  0x000039cb       0xce darjeeling.a(java_lang_Runtime.o)
 .debug_abbrev  0x00003a99      0x200 darjeeling.a(java_lang_System.o)
 .debug_abbrev  0x00003c99      0x1ee darjeeling.a(java_lang_Thread.o)
 .debug_abbrev  0x00003e87      0x1ac darjeeling.a(javax_darjeeling_Darjeeling.o)
 .debug_abbrev  0x00004033      0x1d5 darjeeling.a(javax_darjeeling_vm_Infusion.o)
 .debug_abbrev  0x00004208      0x1cb darjeeling.a(javax_wukong_wkpf_WKPF.o)
 .debug_abbrev  0x000043d3      0x17d darjeeling.a(routing_none.o)
 .debug_abbrev  0x00004550      0x26a darjeeling.a(wkcomm.o)
 .debug_abbrev  0x000047ba      0x286 darjeeling.a(wkpf_comm.o)
 .debug_abbrev  0x00004a40      0x179 darjeeling.a(wkpf_config.o)
 .debug_abbrev  0x00004bb9      0x1e7 darjeeling.a(wkpf_gc.o)
 .debug_abbrev  0x00004da0      0x2f7 darjeeling.a(wkpf_links.o)
 .debug_abbrev  0x00005097      0x1c1 darjeeling.a(wkpf_main.o)
 .debug_abbrev  0x00005258      0x1ca darjeeling.a(wkpf_properties.o)
 .debug_abbrev  0x00005422      0x188 darjeeling.a(wkpf_virtual_wuclasses.o)
 .debug_abbrev  0x000055aa      0x139 darjeeling.a(wkpf_wuclasses.o)
 .debug_abbrev  0x000056e3      0x2d1 darjeeling.a(wkpf_wuobjects.o)
 .debug_abbrev  0x000059b4       0xec darjeeling.a(wkreprog.o)
 .debug_abbrev  0x00005aa0      0x1bd darjeeling.a(wkreprog_comm.o)
 .debug_abbrev  0x00005c5d      0x1ab darjeeling.a(wkreprog_impl.o)
 .debug_abbrev  0x00005e08      0x1cc darjeeling.a(wuclass_LED_update.o)
 .debug_abbrev  0x00005fd4      0x16d darjeeling.a(wuclass_ir_sensor_update.o)
 .debug_abbrev  0x00006141      0x150 darjeeling.a(wuclass_magnetic_sensor_update.o)
 .debug_abbrev  0x00006291      0x159 darjeeling.a(wuclass_or_gate_update.o)
 .debug_abbrev  0x000063ea      0x122 darjeeling.a(wuclass_pir_sensor.o)
 .debug_abbrev  0x0000650c      0x1f4 darjeeling.a(wuclass_ultrasound_sensor_update.o)
 .debug_abbrev  0x00006700      0x253 darjeeling.a(radio_zwave.o)
 .debug_abbrev  0x00006953       0xee darjeeling.a(radio_zwave_platform_dependent.o)
 .debug_abbrev  0x00006a41      0x1c1 darjeeling.a(uart.o)
 .debug_abbrev  0x00006c02       0x14 /usr/local/CrossPack-AVR-20131216/lib/gcc/avr/4.8.1/avr6/libgcc.a(_mulsi3.o)
 .debug_abbrev  0x00006c16       0x14 /usr/local/CrossPack-AVR-20131216/lib/gcc/avr/4.8.1/avr6/libgcc.a(_udivmodhi4.o)
 .debug_abbrev  0x00006c2a       0x14 /usr/local/CrossPack-AVR-20131216/lib/gcc/avr/4.8.1/avr6/libgcc.a(_udivmodsi4.o)
 .debug_abbrev  0x00006c3e       0x14 /usr/local/CrossPack-AVR-20131216/lib/gcc/avr/4.8.1/avr6/libgcc.a(_divmodsi4.o)
 .debug_abbrev  0x00006c52       0x14 /usr/local/CrossPack-AVR-20131216/lib/gcc/avr/4.8.1/avr6/libgcc.a(_negsi2.o)
 .debug_abbrev  0x00006c66       0x14 /usr/local/CrossPack-AVR-20131216/lib/gcc/avr/4.8.1/avr6/libgcc.a(_exit.o)
 .debug_abbrev  0x00006c7a       0x14 /usr/local/CrossPack-AVR-20131216/lib/gcc/avr/4.8.1/avr6/libgcc.a(_tablejump.o)
 .debug_abbrev  0x00006c8e       0x14 /usr/local/CrossPack-AVR-20131216/lib/gcc/avr/4.8.1/avr6/libgcc.a(_copy_data.o)
 .debug_abbrev  0x00006ca2       0x14 /usr/local/CrossPack-AVR-20131216/lib/gcc/avr/4.8.1/avr6/libgcc.a(_clear_bss.o)
 .debug_abbrev  0x00006cb6       0x14 /usr/local/CrossPack-AVR-20131216/lib/gcc/avr/4.8.1/avr6/libgcc.a(_muluhisi3.o)
 .debug_abbrev  0x00006cca       0x14 /usr/local/CrossPack-AVR-20131216/lib/gcc/avr/4.8.1/avr6/libgcc.a(_muldi3.o)
 .debug_abbrev  0x00006cde       0x14 /usr/local/CrossPack-AVR-20131216/lib/gcc/avr/4.8.1/avr6/libgcc.a(_muldi3_6.o)
 .debug_abbrev  0x00006cf2       0x14 /usr/local/CrossPack-AVR-20131216/lib/gcc/avr/4.8.1/avr6/libgcc.a(_divdi3.o)
 .debug_abbrev  0x00006d06       0x14 /usr/local/CrossPack-AVR-20131216/lib/gcc/avr/4.8.1/avr6/libgcc.a(_udivdi3.o)
 .debug_abbrev  0x00006d1a       0x14 /usr/local/CrossPack-AVR-20131216/lib/gcc/avr/4.8.1/avr6/libgcc.a(_udivmod64.o)
 .debug_abbrev  0x00006d2e       0x14 /usr/local/CrossPack-AVR-20131216/lib/gcc/avr/4.8.1/avr6/libgcc.a(_negdi2.o)
 .debug_abbrev  0x00006d42       0x14 /usr/local/CrossPack-AVR-20131216/lib/gcc/avr/4.8.1/avr6/libgcc.a(_prologue.o)
 .debug_abbrev  0x00006d56       0x14 /usr/local/CrossPack-AVR-20131216/lib/gcc/avr/4.8.1/avr6/libgcc.a(_epilogue.o)
 .debug_abbrev  0x00006d6a       0x14 /usr/local/CrossPack-AVR-20131216/lib/gcc/avr/4.8.1/avr6/libgcc.a(_ashldi3.o)
 .debug_abbrev  0x00006d7e       0x14 /usr/local/CrossPack-AVR-20131216/lib/gcc/avr/4.8.1/avr6/libgcc.a(_ashrdi3.o)
 .debug_abbrev  0x00006d92       0x14 /usr/local/CrossPack-AVR-20131216/lib/gcc/avr/4.8.1/avr6/libgcc.a(_adddi3.o)
 .debug_abbrev  0x00006da6       0x14 /usr/local/CrossPack-AVR-20131216/lib/gcc/avr/4.8.1/avr6/libgcc.a(_subdi3.o)
 .debug_abbrev  0x00006dba       0x14 /usr/local/CrossPack-AVR-20131216/lib/gcc/avr/4.8.1/avr6/libgcc.a(_cmpdi2.o)
 .debug_abbrev  0x00006dce       0x14 /usr/local/CrossPack-AVR-20131216/lib/gcc/avr/4.8.1/avr6/libgcc.a(_cmpdi2_s8.o)
 .debug_abbrev  0x00006de2       0x14 /usr/local/CrossPack-AVR-20131216/lib/gcc/avr/4.8.1/avr6/libgcc.a(_umulhisi3.o)

.debug_line     0x00000000     0x90ff
 *(.debug_line)
 .debug_line    0x00000000      0x1ce darjeeling.a(main.o)
 .debug_line    0x000001ce      0x143 darjeeling.a(avr.o)
 .debug_line    0x00000311       0xba darjeeling.a(core.o)
 .debug_line    0x000003cb      0x180 darjeeling.a(debug.o)
 .debug_line    0x0000054b       0xef darjeeling.a(djarchive.o)
 .debug_line    0x0000063a       0xb4 darjeeling.a(djtimer.o)
 .debug_line    0x000006ee      0x25b darjeeling.a(heap.o)
 .debug_line    0x00000949       0xd5 darjeeling.a(hooks.o)
 .debug_line    0x00000a1e      0x1ca darjeeling.a(panic.o)
 .debug_line    0x00000be8      0x5cb darjeeling.a(vm.o)
 .debug_line    0x000011b3      0x305 darjeeling.a(vm_gc.o)
 .debug_line    0x000014b8      0x364 darjeeling.a(vmthread.o)
 .debug_line    0x0000181c      0x13d darjeeling.a(GENERATEDlibinit.o)
 .debug_line    0x00001959      0x1e3 darjeeling.a(array.o)
 .debug_line    0x00001b3c       0x68 darjeeling.a(base_init.o)
 .debug_line    0x00001ba4       0x76 darjeeling.a(darjeeling3_init.o)
 .debug_line    0x00001c1a      0x9cc darjeeling.a(execution.o)
 .debug_line    0x000025e6      0x2e2 darjeeling.a(global_id.o)
 .debug_line    0x000028c8      0x259 darjeeling.a(infusion.o)
 .debug_line    0x00002b21      0x143 darjeeling.a(jlib_base.o)
 .debug_line    0x00002c64      0x13f darjeeling.a(jlib_darjeeling3.o)
 .debug_line    0x00002da3      0x14a darjeeling.a(jlib_wkpf_virtual.o)
 .debug_line    0x00002eed      0x201 darjeeling.a(jstring.o)
 .debug_line    0x000030ee      0x13d darjeeling.a(object.o)
 .debug_line    0x0000322b       0x68 darjeeling.a(uart_init.o)
 .debug_line    0x00003293       0xf2 darjeeling.a(util.o)
 .debug_line    0x00003385       0xaa darjeeling.a(vm_init.o)
 .debug_line    0x0000342f       0xf4 darjeeling.a(wkcomm_init.o)
 .debug_line    0x00003523      0x18e darjeeling.a(wkpf_init.o)
 .debug_line    0x000036b1       0x78 darjeeling.a(wkpf_virtual_init.o)
 .debug_line    0x00003729       0xe1 darjeeling.a(wkreprog_init.o)
 .debug_line    0x0000380a      0x29a darjeeling.a(GENERATEDnative_wuclasses.o)
 .debug_line    0x00003aa4      0x17f darjeeling.a(GENERATEDwuclass_ir_sensor.o)
 .debug_line    0x00003c23      0x189 darjeeling.a(GENERATEDwuclass_led.o)
 .debug_line    0x00003dac      0x185 darjeeling.a(GENERATEDwuclass_magnetic_sensor.o)
 .debug_line    0x00003f31      0x18d darjeeling.a(GENERATEDwuclass_or_gate.o)
 .debug_line    0x000040be      0x180 darjeeling.a(GENERATEDwuclass_pir_sensor.o)
 .debug_line    0x0000423e      0x187 darjeeling.a(GENERATEDwuclass_ultrasound_sensor.o)
 .debug_line    0x000043c5      0x25e darjeeling.a(java_lang_Object.o)
 .debug_line    0x00004623      0x12a darjeeling.a(java_lang_Runtime.o)
 .debug_line    0x0000474d      0x26b darjeeling.a(java_lang_System.o)
 .debug_line    0x000049b8      0x219 darjeeling.a(java_lang_Thread.o)
 .debug_line    0x00004bd1      0x259 darjeeling.a(javax_darjeeling_Darjeeling.o)
 .debug_line    0x00004e2a      0x23c darjeeling.a(javax_darjeeling_vm_Infusion.o)
 .debug_line    0x00005066      0x3c6 darjeeling.a(javax_wukong_wkpf_WKPF.o)
 .debug_line    0x0000542c      0x164 darjeeling.a(routing_none.o)
 .debug_line    0x00005590      0x20f darjeeling.a(wkcomm.o)
 .debug_line    0x0000579f      0x3f9 darjeeling.a(wkpf_comm.o)
 .debug_line    0x00005b98      0x193 darjeeling.a(wkpf_config.o)
 .debug_line    0x00005d2b      0x217 darjeeling.a(wkpf_gc.o)
 .debug_line    0x00005f42      0x4f8 darjeeling.a(wkpf_links.o)
 .debug_line    0x0000643a      0x20d darjeeling.a(wkpf_main.o)
 .debug_line    0x00006647      0x1fc darjeeling.a(wkpf_properties.o)
 .debug_line    0x00006843      0x16a darjeeling.a(wkpf_virtual_wuclasses.o)
 .debug_line    0x000069ad      0x11c darjeeling.a(wkpf_wuclasses.o)
 .debug_line    0x00006ac9      0x2be darjeeling.a(wkpf_wuobjects.o)
 .debug_line    0x00006d87      0x139 darjeeling.a(wkreprog.o)
 .debug_line    0x00006ec0      0x190 darjeeling.a(wkreprog_comm.o)
 .debug_line    0x00007050      0x163 darjeeling.a(wkreprog_impl.o)
 .debug_line    0x000071b3      0x276 darjeeling.a(wuclass_LED_update.o)
 .debug_line    0x00007429      0x200 darjeeling.a(wuclass_ir_sensor_update.o)
 .debug_line    0x00007629      0x241 darjeeling.a(wuclass_magnetic_sensor_update.o)
 .debug_line    0x0000786a      0x1db darjeeling.a(wuclass_or_gate_update.o)
 .debug_line    0x00007a45      0x1eb darjeeling.a(wuclass_pir_sensor.o)
 .debug_line    0x00007c30      0x2e3 darjeeling.a(wuclass_ultrasound_sensor_update.o)
 .debug_line    0x00007f13      0x4e1 darjeeling.a(radio_zwave.o)
 .debug_line    0x000083f4      0x1a7 darjeeling.a(radio_zwave_platform_dependent.o)
 .debug_line    0x0000859b      0x15b darjeeling.a(uart.o)
 .debug_line    0x000086f6       0x65 /usr/local/CrossPack-AVR-20131216/lib/gcc/avr/4.8.1/avr6/libgcc.a(_mulsi3.o)
 .debug_line    0x0000875b       0x6a /usr/local/CrossPack-AVR-20131216/lib/gcc/avr/4.8.1/avr6/libgcc.a(_udivmodhi4.o)
 .debug_line    0x000087c5       0x78 /usr/local/CrossPack-AVR-20131216/lib/gcc/avr/4.8.1/avr6/libgcc.a(_udivmodsi4.o)
 .debug_line    0x0000883d       0x6a /usr/local/CrossPack-AVR-20131216/lib/gcc/avr/4.8.1/avr6/libgcc.a(_divmodsi4.o)
 .debug_line    0x000088a7       0x58 /usr/local/CrossPack-AVR-20131216/lib/gcc/avr/4.8.1/avr6/libgcc.a(_negsi2.o)
 .debug_line    0x000088ff       0x58 /usr/local/CrossPack-AVR-20131216/lib/gcc/avr/4.8.1/avr6/libgcc.a(_exit.o)
 .debug_line    0x00008957       0x5c /usr/local/CrossPack-AVR-20131216/lib/gcc/avr/4.8.1/avr6/libgcc.a(_tablejump.o)
 .debug_line    0x000089b3       0x63 /usr/local/CrossPack-AVR-20131216/lib/gcc/avr/4.8.1/avr6/libgcc.a(_copy_data.o)
 .debug_line    0x00008a16       0x5e /usr/local/CrossPack-AVR-20131216/lib/gcc/avr/4.8.1/avr6/libgcc.a(_clear_bss.o)
 .debug_line    0x00008a74       0x60 /usr/local/CrossPack-AVR-20131216/lib/gcc/avr/4.8.1/avr6/libgcc.a(_muluhisi3.o)
 .debug_line    0x00008ad4       0x86 /usr/local/CrossPack-AVR-20131216/lib/gcc/avr/4.8.1/avr6/libgcc.a(_muldi3.o)
 .debug_line    0x00008b5a       0x5e /usr/local/CrossPack-AVR-20131216/lib/gcc/avr/4.8.1/avr6/libgcc.a(_muldi3_6.o)
 .debug_line    0x00008bb8       0x70 /usr/local/CrossPack-AVR-20131216/lib/gcc/avr/4.8.1/avr6/libgcc.a(_divdi3.o)
 .debug_line    0x00008c28       0x63 /usr/local/CrossPack-AVR-20131216/lib/gcc/avr/4.8.1/avr6/libgcc.a(_udivdi3.o)
 .debug_line    0x00008c8b       0x82 /usr/local/CrossPack-AVR-20131216/lib/gcc/avr/4.8.1/avr6/libgcc.a(_udivmod64.o)
 .debug_line    0x00008d0d       0x5c /usr/local/CrossPack-AVR-20131216/lib/gcc/avr/4.8.1/avr6/libgcc.a(_negdi2.o)
 .debug_line    0x00008d69       0x74 /usr/local/CrossPack-AVR-20131216/lib/gcc/avr/4.8.1/avr6/libgcc.a(_prologue.o)
 .debug_line    0x00008ddd       0x73 /usr/local/CrossPack-AVR-20131216/lib/gcc/avr/4.8.1/avr6/libgcc.a(_epilogue.o)
 .debug_line    0x00008e50       0x6f /usr/local/CrossPack-AVR-20131216/lib/gcc/avr/4.8.1/avr6/libgcc.a(_ashldi3.o)
 .debug_line    0x00008ebf       0x74 /usr/local/CrossPack-AVR-20131216/lib/gcc/avr/4.8.1/avr6/libgcc.a(_ashrdi3.o)
 .debug_line    0x00008f33       0x59 /usr/local/CrossPack-AVR-20131216/lib/gcc/avr/4.8.1/avr6/libgcc.a(_adddi3.o)
 .debug_line    0x00008f8c       0x59 /usr/local/CrossPack-AVR-20131216/lib/gcc/avr/4.8.1/avr6/libgcc.a(_subdi3.o)
 .debug_line    0x00008fe5       0x59 /usr/local/CrossPack-AVR-20131216/lib/gcc/avr/4.8.1/avr6/libgcc.a(_cmpdi2.o)
 .debug_line    0x0000903e       0x5c /usr/local/CrossPack-AVR-20131216/lib/gcc/avr/4.8.1/avr6/libgcc.a(_cmpdi2_s8.o)
 .debug_line    0x0000909a       0x65 /usr/local/CrossPack-AVR-20131216/lib/gcc/avr/4.8.1/avr6/libgcc.a(_umulhisi3.o)

.debug_frame    0x00000000     0x3d78
 *(.debug_frame)
 .debug_frame   0x00000000       0x24 darjeeling.a(main.o)
 .debug_frame   0x00000024      0x118 darjeeling.a(avr.o)
 .debug_frame   0x0000013c       0x34 darjeeling.a(core.o)
 .debug_frame   0x00000170       0x44 darjeeling.a(debug.o)
 .debug_frame   0x000001b4       0x34 darjeeling.a(djarchive.o)
 .debug_frame   0x000001e8       0x50 darjeeling.a(djtimer.o)
 .debug_frame   0x00000238      0x194 darjeeling.a(heap.o)
 .debug_frame   0x000003cc       0x64 darjeeling.a(hooks.o)
 .debug_frame   0x00000430       0x34 darjeeling.a(panic.o)
 .debug_frame   0x00000464      0x560 darjeeling.a(vm.o)
 .debug_frame   0x000009c4      0x134 darjeeling.a(vm_gc.o)
 .debug_frame   0x00000af8      0x288 darjeeling.a(vmthread.o)
 .debug_frame   0x00000d80       0x24 darjeeling.a(GENERATEDlibinit.o)
 .debug_frame   0x00000da4       0xb0 darjeeling.a(array.o)
 .debug_frame   0x00000e54       0x24 darjeeling.a(base_init.o)
 .debug_frame   0x00000e78       0x24 darjeeling.a(darjeeling3_init.o)
 .debug_frame   0x00000e9c      0x5d8 darjeeling.a(execution.o)
 .debug_frame   0x00001474      0x260 darjeeling.a(global_id.o)
 .debug_frame   0x000016d4      0x128 darjeeling.a(infusion.o)
 .debug_frame   0x000017fc       0x24 darjeeling.a(jlib_base.o)
 .debug_frame   0x00001820       0x24 darjeeling.a(jlib_darjeeling3.o)
 .debug_frame   0x00001844       0x24 darjeeling.a(jlib_wkpf_virtual.o)
 .debug_frame   0x00001868       0x94 darjeeling.a(jstring.o)
 .debug_frame   0x000018fc       0x48 darjeeling.a(object.o)
 .debug_frame   0x00001944       0x24 darjeeling.a(uart_init.o)
 .debug_frame   0x00001968       0x34 darjeeling.a(util.o)
 .debug_frame   0x0000199c       0x24 darjeeling.a(vm_init.o)
 .debug_frame   0x000019c0       0x24 darjeeling.a(wkcomm_init.o)
 .debug_frame   0x000019e4       0x34 darjeeling.a(wkpf_init.o)
 .debug_frame   0x00001a18       0x24 darjeeling.a(wkpf_virtual_init.o)
 .debug_frame   0x00001a3c       0x24 darjeeling.a(wkreprog_init.o)
 .debug_frame   0x00001a60       0x34 darjeeling.a(GENERATEDnative_wuclasses.o)
 .debug_frame   0x00001a94       0x24 darjeeling.a(GENERATEDwuclass_led.o)
 .debug_frame   0x00001ab8       0x24 darjeeling.a(GENERATEDwuclass_or_gate.o)
 .debug_frame   0x00001adc      0x104 darjeeling.a(java_lang_Object.o)
 .debug_frame   0x00001be0       0x54 darjeeling.a(java_lang_Runtime.o)
 .debug_frame   0x00001c34       0x94 darjeeling.a(java_lang_System.o)
 .debug_frame   0x00001cc8      0x100 darjeeling.a(java_lang_Thread.o)
 .debug_frame   0x00001dc8      0x100 darjeeling.a(javax_darjeeling_Darjeeling.o)
 .debug_frame   0x00001ec8       0xbc darjeeling.a(javax_darjeeling_vm_Infusion.o)
 .debug_frame   0x00001f84      0x264 darjeeling.a(javax_wukong_wkpf_WKPF.o)
 .debug_frame   0x000021e8       0x94 darjeeling.a(routing_none.o)
 .debug_frame   0x0000227c      0x13c darjeeling.a(wkcomm.o)
 .debug_frame   0x000023b8      0x338 darjeeling.a(wkpf_comm.o)
 .debug_frame   0x000026f0       0xac darjeeling.a(wkpf_config.o)
 .debug_frame   0x0000279c       0x40 darjeeling.a(wkpf_gc.o)
 .debug_frame   0x000027dc      0x5e8 darjeeling.a(wkpf_links.o)
 .debug_frame   0x00002dc4       0xbc darjeeling.a(wkpf_main.o)
 .debug_frame   0x00002e80      0x1ec darjeeling.a(wkpf_properties.o)
 .debug_frame   0x0000306c       0x64 darjeeling.a(wkpf_virtual_wuclasses.o)
 .debug_frame   0x000030d0       0x70 darjeeling.a(wkpf_wuclasses.o)
 .debug_frame   0x00003140      0x240 darjeeling.a(wkpf_wuobjects.o)
 .debug_frame   0x00003380       0x40 darjeeling.a(wkreprog.o)
 .debug_frame   0x000033c0       0x64 darjeeling.a(wkreprog_comm.o)
 .debug_frame   0x00003424      0x100 darjeeling.a(wkreprog_impl.o)
 .debug_frame   0x00003524       0x74 darjeeling.a(wuclass_LED_update.o)
 .debug_frame   0x00003598       0x98 darjeeling.a(wuclass_ir_sensor_update.o)
 .debug_frame   0x00003630       0x84 darjeeling.a(wuclass_magnetic_sensor_update.o)
 .debug_frame   0x000036b4       0x54 darjeeling.a(wuclass_or_gate_update.o)
 .debug_frame   0x00003708       0x84 darjeeling.a(wuclass_pir_sensor.o)
 .debug_frame   0x0000378c       0xa4 darjeeling.a(wuclass_ultrasound_sensor_update.o)
 .debug_frame   0x00003830      0x2b4 darjeeling.a(radio_zwave.o)
 .debug_frame   0x00003ae4       0xc0 darjeeling.a(radio_zwave_platform_dependent.o)
 .debug_frame   0x00003ba4      0x1d4 darjeeling.a(uart.o)

.debug_str      0x00000000     0x5d39
 *(.debug_str)
 .debug_str     0x00000000      0x34c darjeeling.a(main.o)
                                0x3e8 (size before relaxing)
 .debug_str     0x0000034c      0x133 darjeeling.a(avr.o)
                                0x228 (size before relaxing)
 .debug_str     0x0000047f       0x88 darjeeling.a(core.o)
                                0x197 (size before relaxing)
 .debug_str     0x00000507      0x101 darjeeling.a(debug.o)
                                0x3fb (size before relaxing)
 .debug_str     0x00000608       0x7f darjeeling.a(djarchive.o)
                                0x181 (size before relaxing)
 .debug_str     0x00000687       0x6d darjeeling.a(djtimer.o)
                                0x15b (size before relaxing)
 .debug_str     0x000006f4      0x3a1 darjeeling.a(heap.o)
                                0x540 (size before relaxing)
 .debug_str     0x00000a95       0x44 darjeeling.a(hooks.o)
                                0x180 (size before relaxing)
 .debug_str     0x00000ad9       0x3e darjeeling.a(panic.o)
                                0x1ae (size before relaxing)
 .debug_str     0x00000b17      0x765 darjeeling.a(vm.o)
                                0xdc8 (size before relaxing)
 .debug_str     0x0000127c      0x290 darjeeling.a(vm_gc.o)
                                0x950 (size before relaxing)
 .debug_str     0x0000150c      0x106 darjeeling.a(vmthread.o)
                                0x8bc (size before relaxing)
 .debug_str     0x00001612       0xaa darjeeling.a(GENERATEDlibinit.o)
                                0x382 (size before relaxing)
 .debug_str     0x000016bc       0x93 darjeeling.a(array.o)
                                0x42e (size before relaxing)
 .debug_str     0x0000174f       0x3e darjeeling.a(base_init.o)
                                 0x8b (size before relaxing)
 .debug_str     0x0000178d       0x4c darjeeling.a(darjeeling3_init.o)
                                 0xa0 (size before relaxing)
 .debug_str     0x000017d9      0xa1f darjeeling.a(execution.o)
                               0x148e (size before relaxing)
 .debug_str     0x000021f8      0x1ec darjeeling.a(global_id.o)
                                0x9fb (size before relaxing)
 .debug_str     0x000023e4       0xb0 darjeeling.a(infusion.o)
                                0x5e0 (size before relaxing)
 .debug_str     0x00002494      0x450 darjeeling.a(jlib_base.o)
                                0x697 (size before relaxing)
 .debug_str     0x000028e4      0x1bd darjeeling.a(jlib_darjeeling3.o)
                                0x404 (size before relaxing)
 .debug_str     0x00002aa1      0x4bd darjeeling.a(jlib_wkpf_virtual.o)
                                0x704 (size before relaxing)
 .debug_str     0x00002f5e       0xc4 darjeeling.a(jstring.o)
                                0x65d (size before relaxing)
 .debug_str     0x00003022       0x4e darjeeling.a(object.o)
                                0x1ca (size before relaxing)
 .debug_str     0x00003070       0x3e darjeeling.a(uart_init.o)
                                 0x8b (size before relaxing)
 .debug_str     0x000030ae       0x41 darjeeling.a(util.o)
                                0x15c (size before relaxing)
 .debug_str     0x000030ef       0x83 darjeeling.a(vm_init.o)
                                0x1c8 (size before relaxing)
 .debug_str     0x00003172       0x62 darjeeling.a(wkcomm_init.o)
                                0x165 (size before relaxing)
 .debug_str     0x000031d4       0xab darjeeling.a(wkpf_init.o)
                                0x204 (size before relaxing)
 .debug_str     0x0000327f       0x4e darjeeling.a(wkpf_virtual_init.o)
                                 0xa3 (size before relaxing)
 .debug_str     0x000032cd       0x66 darjeeling.a(wkreprog_init.o)
                                0x172 (size before relaxing)
 .debug_str     0x00003333      0x1da darjeeling.a(GENERATEDnative_wuclasses.o)
                                0x385 (size before relaxing)
 .debug_str     0x0000350d       0x60 darjeeling.a(GENERATEDwuclass_ir_sensor.o)
                                0x256 (size before relaxing)
 .debug_str     0x0000356d       0x94 darjeeling.a(GENERATEDwuclass_led.o)
                                0x28d (size before relaxing)
 .debug_str     0x00003601       0x66 darjeeling.a(GENERATEDwuclass_magnetic_sensor.o)
                                0x262 (size before relaxing)
 .debug_str     0x00003667       0x7d darjeeling.a(GENERATEDwuclass_or_gate.o)
                                0x299 (size before relaxing)
 .debug_str     0x000036e4       0x61 darjeeling.a(GENERATEDwuclass_pir_sensor.o)
                                0x258 (size before relaxing)
 .debug_str     0x00003745       0x68 darjeeling.a(GENERATEDwuclass_ultrasound_sensor.o)
                                0x266 (size before relaxing)
 .debug_str     0x000037ad      0x100 darjeeling.a(java_lang_Object.o)
                                0x6f8 (size before relaxing)
 .debug_str     0x000038ad       0x46 darjeeling.a(java_lang_Runtime.o)
                                0x206 (size before relaxing)
 .debug_str     0x000038f3       0x7e darjeeling.a(java_lang_System.o)
                                0x77f (size before relaxing)
 .debug_str     0x00003971       0x51 darjeeling.a(java_lang_Thread.o)
                                0x883 (size before relaxing)
 .debug_str     0x000039c2       0x61 darjeeling.a(javax_darjeeling_Darjeeling.o)
                                0x765 (size before relaxing)
 .debug_str     0x00003a23       0x51 darjeeling.a(javax_darjeeling_vm_Infusion.o)
                                0x8f5 (size before relaxing)
 .debug_str     0x00003a74      0x3c4 darjeeling.a(javax_wukong_wkpf_WKPF.o)
                                0xe82 (size before relaxing)
 .debug_str     0x00003e38      0x179 darjeeling.a(routing_none.o)
                                0x26f (size before relaxing)
 .debug_str     0x00003fb1      0x17a darjeeling.a(wkcomm.o)
                                0x3ca (size before relaxing)
 .debug_str     0x0000412b      0x5de darjeeling.a(wkpf_comm.o)
                                0xae6 (size before relaxing)
 .debug_str     0x00004709      0x166 darjeeling.a(wkpf_config.o)
                                0x300 (size before relaxing)
 .debug_str     0x0000486f       0x7f darjeeling.a(wkpf_gc.o)
                                0x351 (size before relaxing)
 .debug_str     0x000048ee      0x5bb darjeeling.a(wkpf_links.o)
                                0xcf8 (size before relaxing)
 .debug_str     0x00004ea9       0xa1 darjeeling.a(wkpf_main.o)
                                0x48c (size before relaxing)
 .debug_str     0x00004f4a      0x16f darjeeling.a(wkpf_properties.o)
                                0x568 (size before relaxing)
 .debug_str     0x000050b9       0x53 darjeeling.a(wkpf_virtual_wuclasses.o)
                                0x371 (size before relaxing)
 .debug_str     0x0000510c       0x43 darjeeling.a(wkpf_wuclasses.o)
                                0x273 (size before relaxing)
 .debug_str     0x0000514f      0x125 darjeeling.a(wkpf_wuobjects.o)
                                0x7a4 (size before relaxing)
 .debug_str     0x00005274       0x69 darjeeling.a(wkreprog.o)
                                0x1bd (size before relaxing)
 .debug_str     0x000052dd       0xe1 darjeeling.a(wkreprog_comm.o)
                                0x2ee (size before relaxing)
 .debug_str     0x000053be       0xbe darjeeling.a(wkreprog_impl.o)
                                0x299 (size before relaxing)
 .debug_str     0x0000547c       0x8c darjeeling.a(wuclass_LED_update.o)
                                0x2fd (size before relaxing)
 .debug_str     0x00005508       0xc0 darjeeling.a(wuclass_ir_sensor_update.o)
                                0x31d (size before relaxing)
 .debug_str     0x000055c8       0xaf darjeeling.a(wuclass_magnetic_sensor_update.o)
                                0x338 (size before relaxing)
 .debug_str     0x00005677       0x9e darjeeling.a(wuclass_or_gate_update.o)
                                0x310 (size before relaxing)
 .debug_str     0x00005715       0x8c darjeeling.a(wuclass_pir_sensor.o)
                                0x2f0 (size before relaxing)
 .debug_str     0x000057a1       0xff darjeeling.a(wuclass_ultrasound_sensor_update.o)
                                0x379 (size before relaxing)
 .debug_str     0x000058a0      0x30a darjeeling.a(radio_zwave.o)
                                0x520 (size before relaxing)
 .debug_str     0x00005baa       0x8c darjeeling.a(radio_zwave_platform_dependent.o)
                                0x273 (size before relaxing)
 .debug_str     0x00005c36      0x103 darjeeling.a(uart.o)
                                0x253 (size before relaxing)

.debug_loc      0x00000000    0x189ea
 *(.debug_loc)
 .debug_loc     0x00000000      0x3db darjeeling.a(avr.o)
 .debug_loc     0x000003db       0x9a darjeeling.a(core.o)
 .debug_loc     0x00000475       0x9c darjeeling.a(debug.o)
 .debug_loc     0x00000511      0x124 darjeeling.a(djarchive.o)
 .debug_loc     0x00000635       0x5b darjeeling.a(djtimer.o)
 .debug_loc     0x00000690      0x673 darjeeling.a(heap.o)
 .debug_loc     0x00000d03      0x20a darjeeling.a(hooks.o)
 .debug_loc     0x00000f0d       0x98 darjeeling.a(panic.o)
 .debug_loc     0x00000fa5     0x2966 darjeeling.a(vm.o)
 .debug_loc     0x0000390b      0x7c3 darjeeling.a(vm_gc.o)
 .debug_loc     0x000040ce      0xe4a darjeeling.a(vmthread.o)
 .debug_loc     0x00004f18      0x3ad darjeeling.a(array.o)
 .debug_loc     0x000052c5     0x47a6 darjeeling.a(execution.o)
 .debug_loc     0x00009a6b      0xf2c darjeeling.a(global_id.o)
 .debug_loc     0x0000a997      0xb31 darjeeling.a(infusion.o)
 .debug_loc     0x0000b4c8      0x1aa darjeeling.a(jlib_base.o)
 .debug_loc     0x0000b672       0xa0 darjeeling.a(jlib_darjeeling3.o)
 .debug_loc     0x0000b712      0x14b darjeeling.a(jlib_wkpf_virtual.o)
 .debug_loc     0x0000b85d      0x471 darjeeling.a(jstring.o)
 .debug_loc     0x0000bcce      0x13f darjeeling.a(object.o)
 .debug_loc     0x0000be0d      0x17b darjeeling.a(util.o)
 .debug_loc     0x0000bf88       0xb4 darjeeling.a(GENERATEDnative_wuclasses.o)
 .debug_loc     0x0000c03c       0x26 darjeeling.a(GENERATEDwuclass_led.o)
 .debug_loc     0x0000c062       0x26 darjeeling.a(GENERATEDwuclass_or_gate.o)
 .debug_loc     0x0000c088      0x437 darjeeling.a(java_lang_Object.o)
 .debug_loc     0x0000c4bf      0x35d darjeeling.a(java_lang_System.o)
 .debug_loc     0x0000c81c      0x328 darjeeling.a(java_lang_Thread.o)
 .debug_loc     0x0000cb44      0x2fe darjeeling.a(javax_darjeeling_Darjeeling.o)
 .debug_loc     0x0000ce42      0x3f8 darjeeling.a(javax_darjeeling_vm_Infusion.o)
 .debug_loc     0x0000d23a      0x7dd darjeeling.a(javax_wukong_wkpf_WKPF.o)
 .debug_loc     0x0000da17      0x142 darjeeling.a(routing_none.o)
 .debug_loc     0x0000db59      0x7c6 darjeeling.a(wkcomm.o)
 .debug_loc     0x0000e31f     0x1fc8 darjeeling.a(wkpf_comm.o)
 .debug_loc     0x000102e7      0x2c0 darjeeling.a(wkpf_config.o)
 .debug_loc     0x000105a7      0x2e1 darjeeling.a(wkpf_gc.o)
 .debug_loc     0x00010888     0x3884 darjeeling.a(wkpf_links.o)
 .debug_loc     0x0001410c      0x40f darjeeling.a(wkpf_main.o)
 .debug_loc     0x0001451b      0xd0b darjeeling.a(wkpf_properties.o)
 .debug_loc     0x00015226      0x247 darjeeling.a(wkpf_virtual_wuclasses.o)
 .debug_loc     0x0001546d      0x129 darjeeling.a(wkpf_wuclasses.o)
 .debug_loc     0x00015596      0xa29 darjeeling.a(wkpf_wuobjects.o)
 .debug_loc     0x00015fbf      0x148 darjeeling.a(wkreprog.o)
 .debug_loc     0x00016107      0x459 darjeeling.a(wkreprog_comm.o)
 .debug_loc     0x00016560      0x418 darjeeling.a(wkreprog_impl.o)
 .debug_loc     0x00016978      0x196 darjeeling.a(wuclass_LED_update.o)
 .debug_loc     0x00016b0e      0x246 darjeeling.a(wuclass_ir_sensor_update.o)
 .debug_loc     0x00016d54      0x190 darjeeling.a(wuclass_magnetic_sensor_update.o)
 .debug_loc     0x00016ee4       0xb8 darjeeling.a(wuclass_or_gate_update.o)
 .debug_loc     0x00016f9c      0x1c5 darjeeling.a(wuclass_pir_sensor.o)
 .debug_loc     0x00017161      0x3a4 darjeeling.a(wuclass_ultrasound_sensor_update.o)
 .debug_loc     0x00017505      0xcb5 darjeeling.a(radio_zwave.o)
 .debug_loc     0x000181ba      0x1ca darjeeling.a(radio_zwave_platform_dependent.o)
 .debug_loc     0x00018384      0x666 darjeeling.a(uart.o)

.debug_macinfo
 *(.debug_macinfo)

.debug_pubtypes
 *(.debug_pubtypes)

.debug_ranges   0x00000000      0x478
 *(.debug_ranges)
 .debug_ranges  0x00000000       0x10 darjeeling.a(main.o)
 .debug_ranges  0x00000010       0x18 darjeeling.a(heap.o)
 .debug_ranges  0x00000028       0x48 darjeeling.a(vm.o)
 .debug_ranges  0x00000070       0x60 darjeeling.a(execution.o)
 .debug_ranges  0x000000d0       0x18 darjeeling.a(global_id.o)
 .debug_ranges  0x000000e8       0x18 darjeeling.a(jstring.o)
 .debug_ranges  0x00000100       0x30 darjeeling.a(java_lang_System.o)
 .debug_ranges  0x00000130       0x18 darjeeling.a(wkpf_comm.o)
 .debug_ranges  0x00000148      0x230 darjeeling.a(wkpf_links.o)
 .debug_ranges  0x00000378       0x30 darjeeling.a(wkpf_main.o)
 .debug_ranges  0x000003a8       0x30 darjeeling.a(wkpf_wuobjects.o)
 .debug_ranges  0x000003d8       0x18 darjeeling.a(wkreprog_comm.o)
 .debug_ranges  0x000003f0       0x18 darjeeling.a(wkreprog_impl.o)
 .debug_ranges  0x00000408       0x70 darjeeling.a(radio_zwave.o)

.debug_macro
 *(.debug_macro)
OUTPUT(darjeeling.elf elf32-avr)
LOAD linker stubs

.reprogram_flash_page
                0x0003f000       0xac
 .reprogram_flash_page
                0x0003f000       0xac darjeeling.a(wkreprog_impl.o)
                0x0003f000                avr_flash_program_page

Cross Reference Table

Symbol                                            File
SerialAPI_request                                 darjeeling.a(radio_zwave.o)
UBRR                                              darjeeling.a(uart.o)
UBRRH                                             darjeeling.a(uart.o)
UBRRL                                             darjeeling.a(uart.o)
UCSRA                                             darjeeling.a(uart.o)
UCSRB                                             darjeeling.a(uart.o)
UCSRC                                             darjeeling.a(uart.o)
UDR                                               darjeeling.a(uart.o)
XCKDDR                                            darjeeling.a(uart.o)
XCKn                                              darjeeling.a(uart.o)
ZW_sendData                                       darjeeling.a(radio_zwave.o)
ZW_sendDataRaw                                    darjeeling.a(radio_zwave.o)
Zwave_receive                                     darjeeling.a(radio_zwave.o)
__adddi3                                          /usr/local/CrossPack-AVR-20131216/lib/gcc/avr/4.8.1/avr6/libgcc.a(_adddi3.o)
                                                  darjeeling.a(uart.o)
                                                  darjeeling.a(wkpf_wuobjects.o)
                                                  darjeeling.a(wkcomm.o)
                                                  darjeeling.a(execution.o)
                                                  darjeeling.a(vmthread.o)
__addsf3                                          /usr/local/CrossPack-AVR-20131216/lib/gcc/avr/4.8.1/../../../../avr/lib/avr6/libm.a(addsf3.o)
                                                  /usr/local/CrossPack-AVR-20131216/lib/gcc/avr/4.8.1/../../../../avr/lib/avr6/libm.a(log.o)
__addsf3x                                         /usr/local/CrossPack-AVR-20131216/lib/gcc/avr/4.8.1/../../../../avr/lib/avr6/libm.a(addsf3x.o)
                                                  /usr/local/CrossPack-AVR-20131216/lib/gcc/avr/4.8.1/../../../../avr/lib/avr6/libm.a(log.o)
                                                  /usr/local/CrossPack-AVR-20131216/lib/gcc/avr/4.8.1/../../../../avr/lib/avr6/libm.a(fp_powser.o)
                                                  /usr/local/CrossPack-AVR-20131216/lib/gcc/avr/4.8.1/../../../../avr/lib/avr6/libm.a(addsf3.o)
__ashldi3                                         /usr/local/CrossPack-AVR-20131216/lib/gcc/avr/4.8.1/avr6/libgcc.a(_ashldi3.o)
                                                  darjeeling.a(execution.o)
__ashrdi3                                         /usr/local/CrossPack-AVR-20131216/lib/gcc/avr/4.8.1/avr6/libgcc.a(_ashrdi3.o)
                                                  darjeeling.a(execution.o)
__bad_interrupt                                   /usr/local/CrossPack-AVR-20131216/lib/gcc/avr/4.8.1/../../../../avr/lib/avr6/crtm2560.o
__bss_end                                         /usr/local/CrossPack-AVR-20131216/lib/gcc/avr/4.8.1/avr6/libgcc.a(_clear_bss.o)
__bss_start                                       /usr/local/CrossPack-AVR-20131216/lib/gcc/avr/4.8.1/avr6/libgcc.a(_clear_bss.o)
__cmpdi2                                          /usr/local/CrossPack-AVR-20131216/lib/gcc/avr/4.8.1/avr6/libgcc.a(_cmpdi2.o)
                                                  darjeeling.a(uart.o)
                                                  darjeeling.a(radio_zwave_platform_dependent.o)
                                                  darjeeling.a(wkpf_wuobjects.o)
                                                  darjeeling.a(wkcomm.o)
                                                  darjeeling.a(execution.o)
                                                  darjeeling.a(vm.o)
__cmpdi2_s8                                       /usr/local/CrossPack-AVR-20131216/lib/gcc/avr/4.8.1/avr6/libgcc.a(_cmpdi2_s8.o)
                                                  darjeeling.a(wkpf_wuobjects.o)
                                                  darjeeling.a(vmthread.o)
                                                  darjeeling.a(vm.o)
__data_end                                        /usr/local/CrossPack-AVR-20131216/lib/gcc/avr/4.8.1/avr6/libgcc.a(_copy_data.o)
__data_load_start                                 /usr/local/CrossPack-AVR-20131216/lib/gcc/avr/4.8.1/avr6/libgcc.a(_copy_data.o)
__data_start                                      /usr/local/CrossPack-AVR-20131216/lib/gcc/avr/4.8.1/avr6/libgcc.a(_copy_data.o)
__divdi3                                          /usr/local/CrossPack-AVR-20131216/lib/gcc/avr/4.8.1/avr6/libgcc.a(_divdi3.o)
__divdi3_moddi3                                   /usr/local/CrossPack-AVR-20131216/lib/gcc/avr/4.8.1/avr6/libgcc.a(_divdi3.o)
__divmodsi4                                       /usr/local/CrossPack-AVR-20131216/lib/gcc/avr/4.8.1/avr6/libgcc.a(_divmodsi4.o)
                                                  darjeeling.a(execution.o)
__divsf3                                          /usr/local/CrossPack-AVR-20131216/lib/gcc/avr/4.8.1/../../../../avr/lib/avr6/libm.a(divsf3.o)
                                                  /usr/local/CrossPack-AVR-20131216/lib/gcc/avr/4.8.1/../../../../avr/lib/avr6/libm.a(inverse.o)
                                                  darjeeling.a(wuclass_ultrasound_sensor_update.o)
__divsf3_pse                                      /usr/local/CrossPack-AVR-20131216/lib/gcc/avr/4.8.1/../../../../avr/lib/avr6/libm.a(divsf3x.o)
__divsf3x                                         /usr/local/CrossPack-AVR-20131216/lib/gcc/avr/4.8.1/../../../../avr/lib/avr6/libm.a(divsf3x.o)
                                                  /usr/local/CrossPack-AVR-20131216/lib/gcc/avr/4.8.1/../../../../avr/lib/avr6/libm.a(divsf3.o)
__do_clear_bss                                    /usr/local/CrossPack-AVR-20131216/lib/gcc/avr/4.8.1/avr6/libgcc.a(_clear_bss.o)
                                                  darjeeling.a(uart.o)
                                                  darjeeling.a(radio_zwave_platform_dependent.o)
                                                  darjeeling.a(radio_zwave.o)
                                                  darjeeling.a(wuclass_ultrasound_sensor_update.o)
                                                  darjeeling.a(wuclass_pir_sensor.o)
                                                  darjeeling.a(wuclass_or_gate_update.o)
                                                  darjeeling.a(wuclass_magnetic_sensor_update.o)
                                                  darjeeling.a(wuclass_ir_sensor_update.o)
                                                  darjeeling.a(wuclass_LED_update.o)
                                                  darjeeling.a(wkreprog_impl.o)
                                                  darjeeling.a(wkreprog_comm.o)
                                                  darjeeling.a(wkpf_wuobjects.o)
                                                  darjeeling.a(wkpf_wuclasses.o)
                                                  darjeeling.a(wkpf_virtual_wuclasses.o)
                                                  darjeeling.a(wkpf_properties.o)
                                                  darjeeling.a(wkpf_main.o)
                                                  darjeeling.a(wkpf_links.o)
                                                  darjeeling.a(wkpf_gc.o)
                                                  darjeeling.a(wkpf_comm.o)
                                                  darjeeling.a(wkcomm.o)
                                                  darjeeling.a(javax_wukong_wkpf_WKPF.o)
                                                  darjeeling.a(javax_darjeeling_vm_Infusion.o)
                                                  darjeeling.a(java_lang_Thread.o)
                                                  darjeeling.a(java_lang_Runtime.o)
                                                  darjeeling.a(GENERATEDnative_wuclasses.o)
                                                  darjeeling.a(wkreprog_init.o)
                                                  darjeeling.a(wkpf_init.o)
                                                  darjeeling.a(wkcomm_init.o)
                                                  darjeeling.a(vm_init.o)
                                                  darjeeling.a(infusion.o)
                                                  darjeeling.a(global_id.o)
                                                  darjeeling.a(execution.o)
                                                  darjeeling.a(array.o)
                                                  darjeeling.a(vmthread.o)
                                                  darjeeling.a(vm_gc.o)
                                                  darjeeling.a(vm.o)
                                                  darjeeling.a(panic.o)
                                                  darjeeling.a(hooks.o)
                                                  darjeeling.a(heap.o)
                                                  darjeeling.a(djarchive.o)
                                                  darjeeling.a(debug.o)
                                                  darjeeling.a(core.o)
                                                  darjeeling.a(avr.o)
                                                  darjeeling.a(main.o)
__do_copy_data                                    /usr/local/CrossPack-AVR-20131216/lib/gcc/avr/4.8.1/avr6/libgcc.a(_copy_data.o)
                                                  darjeeling.a(uart.o)
                                                  darjeeling.a(radio_zwave_platform_dependent.o)
                                                  darjeeling.a(radio_zwave.o)
                                                  darjeeling.a(wuclass_ultrasound_sensor_update.o)
                                                  darjeeling.a(wuclass_pir_sensor.o)
                                                  darjeeling.a(wuclass_or_gate_update.o)
                                                  darjeeling.a(wuclass_magnetic_sensor_update.o)
                                                  darjeeling.a(wuclass_ir_sensor_update.o)
                                                  darjeeling.a(wuclass_LED_update.o)
                                                  darjeeling.a(wkpf_wuobjects.o)
                                                  darjeeling.a(wkpf_links.o)
                                                  darjeeling.a(wkpf_comm.o)
                                                  darjeeling.a(javax_wukong_wkpf_WKPF.o)
                                                  darjeeling.a(javax_darjeeling_Darjeeling.o)
                                                  darjeeling.a(GENERATEDwuclass_ultrasound_sensor.o)
                                                  darjeeling.a(GENERATEDwuclass_pir_sensor.o)
                                                  darjeeling.a(GENERATEDwuclass_or_gate.o)
                                                  darjeeling.a(GENERATEDwuclass_magnetic_sensor.o)
                                                  darjeeling.a(GENERATEDwuclass_led.o)
                                                  darjeeling.a(GENERATEDwuclass_ir_sensor.o)
                                                  darjeeling.a(execution.o)
                                                  darjeeling.a(GENERATEDlibinit.o)
                                                  darjeeling.a(vm_gc.o)
                                                  darjeeling.a(vm.o)
                                                  darjeeling.a(panic.o)
                                                  darjeeling.a(hooks.o)
                                                  darjeeling.a(heap.o)
                                                  darjeeling.a(debug.o)
__eerd_block_m2560                                /usr/local/CrossPack-AVR-20131216/lib/gcc/avr/4.8.1/../../../../avr/lib/avr6/libc.a(eerd_block_atmega2560.o)
                                                  darjeeling.a(wkpf_config.o)
__eerd_blraw_m2560                                /usr/local/CrossPack-AVR-20131216/lib/gcc/avr/4.8.1/../../../../avr/lib/avr6/libc.a(eerd_block_atmega2560.o)
                                                  /usr/local/CrossPack-AVR-20131216/lib/gcc/avr/4.8.1/../../../../avr/lib/avr6/libc.a(eerd_word_atmega2560.o)
__eerd_byte_m2560                                 /usr/local/CrossPack-AVR-20131216/lib/gcc/avr/4.8.1/../../../../avr/lib/avr6/libc.a(eerd_byte_atmega2560.o)
                                                  darjeeling.a(wkpf_config.o)
__eerd_word_m2560                                 /usr/local/CrossPack-AVR-20131216/lib/gcc/avr/4.8.1/../../../../avr/lib/avr6/libc.a(eerd_word_atmega2560.o)
                                                  darjeeling.a(wkpf_config.o)
__eeupd_block_m2560                               /usr/local/CrossPack-AVR-20131216/lib/gcc/avr/4.8.1/../../../../avr/lib/avr6/libc.a(eeupd_block_atmega2560.o)
                                                  darjeeling.a(wkpf_config.o)
__eeupd_byte_m2560                                /usr/local/CrossPack-AVR-20131216/lib/gcc/avr/4.8.1/../../../../avr/lib/avr6/libc.a(eeupd_byte_atmega2560.o)
                                                  /usr/local/CrossPack-AVR-20131216/lib/gcc/avr/4.8.1/../../../../avr/lib/avr6/libc.a(eeupd_word_atmega2560.o)
                                                  darjeeling.a(wkpf_config.o)
__eeupd_r18_m2560                                 /usr/local/CrossPack-AVR-20131216/lib/gcc/avr/4.8.1/../../../../avr/lib/avr6/libc.a(eeupd_byte_atmega2560.o)
                                                  /usr/local/CrossPack-AVR-20131216/lib/gcc/avr/4.8.1/../../../../avr/lib/avr6/libc.a(eeupd_word_atmega2560.o)
                                                  /usr/local/CrossPack-AVR-20131216/lib/gcc/avr/4.8.1/../../../../avr/lib/avr6/libc.a(eeupd_block_atmega2560.o)
__eeupd_word_m2560                                /usr/local/CrossPack-AVR-20131216/lib/gcc/avr/4.8.1/../../../../avr/lib/avr6/libc.a(eeupd_word_atmega2560.o)
                                                  darjeeling.a(wkpf_config.o)
__epilogue_restores__                             /usr/local/CrossPack-AVR-20131216/lib/gcc/avr/4.8.1/avr6/libgcc.a(_epilogue.o)
                                                  /usr/local/CrossPack-AVR-20131216/lib/gcc/avr/4.8.1/avr6/libgcc.a(_divdi3.o)
__fixsfsi                                         /usr/local/CrossPack-AVR-20131216/lib/gcc/avr/4.8.1/../../../../avr/lib/avr6/libm.a(fixsfsi.o)
                                                  darjeeling.a(wuclass_ultrasound_sensor_update.o)
__fixunssfsi                                      /usr/local/CrossPack-AVR-20131216/lib/gcc/avr/4.8.1/../../../../avr/lib/avr6/libm.a(fixunssfsi.o)
                                                  /usr/local/CrossPack-AVR-20131216/lib/gcc/avr/4.8.1/../../../../avr/lib/avr6/libm.a(fixsfsi.o)
                                                  darjeeling.a(wuclass_ir_sensor_update.o)
__floatsisf                                       /usr/local/CrossPack-AVR-20131216/lib/gcc/avr/4.8.1/../../../../avr/lib/avr6/libm.a(floatsisf.o)
                                                  /usr/local/CrossPack-AVR-20131216/lib/gcc/avr/4.8.1/../../../../avr/lib/avr6/libm.a(log.o)
__floatunsisf                                     /usr/local/CrossPack-AVR-20131216/lib/gcc/avr/4.8.1/../../../../avr/lib/avr6/libm.a(floatsisf.o)
                                                  darjeeling.a(wuclass_ultrasound_sensor_update.o)
                                                  darjeeling.a(wuclass_ir_sensor_update.o)
__fp_inf                                          /usr/local/CrossPack-AVR-20131216/lib/gcc/avr/4.8.1/../../../../avr/lib/avr6/libm.a(fp_inf.o)
                                                  /usr/local/CrossPack-AVR-20131216/lib/gcc/avr/4.8.1/../../../../avr/lib/avr6/libm.a(log.o)
                                                  /usr/local/CrossPack-AVR-20131216/lib/gcc/avr/4.8.1/../../../../avr/lib/avr6/libm.a(ldexp.o)
                                                  /usr/local/CrossPack-AVR-20131216/lib/gcc/avr/4.8.1/../../../../avr/lib/avr6/libm.a(exp.o)
                                                  /usr/local/CrossPack-AVR-20131216/lib/gcc/avr/4.8.1/../../../../avr/lib/avr6/libm.a(mulsf3x.o)
                                                  /usr/local/CrossPack-AVR-20131216/lib/gcc/avr/4.8.1/../../../../avr/lib/avr6/libm.a(divsf3x.o)
                                                  /usr/local/CrossPack-AVR-20131216/lib/gcc/avr/4.8.1/../../../../avr/lib/avr6/libm.a(addsf3x.o)
__fp_mpack                                        /usr/local/CrossPack-AVR-20131216/lib/gcc/avr/4.8.1/../../../../avr/lib/avr6/libm.a(fp_mpack.o)
                                                  /usr/local/CrossPack-AVR-20131216/lib/gcc/avr/4.8.1/../../../../avr/lib/avr6/libm.a(log.o)
                                                  /usr/local/CrossPack-AVR-20131216/lib/gcc/avr/4.8.1/../../../../avr/lib/avr6/libm.a(ldexp.o)
__fp_mpack_finite                                 /usr/local/CrossPack-AVR-20131216/lib/gcc/avr/4.8.1/../../../../avr/lib/avr6/libm.a(fp_mpack.o)
__fp_nan                                          /usr/local/CrossPack-AVR-20131216/lib/gcc/avr/4.8.1/../../../../avr/lib/avr6/libm.a(fp_nan.o)
                                                  /usr/local/CrossPack-AVR-20131216/lib/gcc/avr/4.8.1/../../../../avr/lib/avr6/libm.a(log.o)
                                                  /usr/local/CrossPack-AVR-20131216/lib/gcc/avr/4.8.1/../../../../avr/lib/avr6/libm.a(exp.o)
                                                  /usr/local/CrossPack-AVR-20131216/lib/gcc/avr/4.8.1/../../../../avr/lib/avr6/libm.a(pow.o)
                                                  /usr/local/CrossPack-AVR-20131216/lib/gcc/avr/4.8.1/../../../../avr/lib/avr6/libm.a(mulsf3x.o)
                                                  /usr/local/CrossPack-AVR-20131216/lib/gcc/avr/4.8.1/../../../../avr/lib/avr6/libm.a(divsf3x.o)
                                                  /usr/local/CrossPack-AVR-20131216/lib/gcc/avr/4.8.1/../../../../avr/lib/avr6/libm.a(addsf3x.o)
__fp_powser                                       /usr/local/CrossPack-AVR-20131216/lib/gcc/avr/4.8.1/../../../../avr/lib/avr6/libm.a(fp_powser.o)
                                                  /usr/local/CrossPack-AVR-20131216/lib/gcc/avr/4.8.1/../../../../avr/lib/avr6/libm.a(log.o)
                                                  /usr/local/CrossPack-AVR-20131216/lib/gcc/avr/4.8.1/../../../../avr/lib/avr6/libm.a(exp.o)
__fp_pscA                                         /usr/local/CrossPack-AVR-20131216/lib/gcc/avr/4.8.1/../../../../avr/lib/avr6/libm.a(fp_pscA.o)
                                                  /usr/local/CrossPack-AVR-20131216/lib/gcc/avr/4.8.1/../../../../avr/lib/avr6/libm.a(mulsf3x.o)
                                                  /usr/local/CrossPack-AVR-20131216/lib/gcc/avr/4.8.1/../../../../avr/lib/avr6/libm.a(divsf3x.o)
                                                  /usr/local/CrossPack-AVR-20131216/lib/gcc/avr/4.8.1/../../../../avr/lib/avr6/libm.a(addsf3x.o)
__fp_pscB                                         /usr/local/CrossPack-AVR-20131216/lib/gcc/avr/4.8.1/../../../../avr/lib/avr6/libm.a(fp_pscB.o)
                                                  /usr/local/CrossPack-AVR-20131216/lib/gcc/avr/4.8.1/../../../../avr/lib/avr6/libm.a(mulsf3x.o)
                                                  /usr/local/CrossPack-AVR-20131216/lib/gcc/avr/4.8.1/../../../../avr/lib/avr6/libm.a(divsf3x.o)
                                                  /usr/local/CrossPack-AVR-20131216/lib/gcc/avr/4.8.1/../../../../avr/lib/avr6/libm.a(addsf3x.o)
__fp_round                                        /usr/local/CrossPack-AVR-20131216/lib/gcc/avr/4.8.1/../../../../avr/lib/avr6/libm.a(fp_round.o)
                                                  /usr/local/CrossPack-AVR-20131216/lib/gcc/avr/4.8.1/../../../../avr/lib/avr6/libm.a(log.o)
                                                  /usr/local/CrossPack-AVR-20131216/lib/gcc/avr/4.8.1/../../../../avr/lib/avr6/libm.a(mulsf3.o)
                                                  /usr/local/CrossPack-AVR-20131216/lib/gcc/avr/4.8.1/../../../../avr/lib/avr6/libm.a(divsf3.o)
                                                  /usr/local/CrossPack-AVR-20131216/lib/gcc/avr/4.8.1/../../../../avr/lib/avr6/libm.a(addsf3.o)
__fp_split3                                       /usr/local/CrossPack-AVR-20131216/lib/gcc/avr/4.8.1/../../../../avr/lib/avr6/libm.a(fp_split3.o)
                                                  /usr/local/CrossPack-AVR-20131216/lib/gcc/avr/4.8.1/../../../../avr/lib/avr6/libm.a(mulsf3x.o)
                                                  /usr/local/CrossPack-AVR-20131216/lib/gcc/avr/4.8.1/../../../../avr/lib/avr6/libm.a(divsf3x.o)
                                                  /usr/local/CrossPack-AVR-20131216/lib/gcc/avr/4.8.1/../../../../avr/lib/avr6/libm.a(addsf3x.o)
__fp_splitA                                       /usr/local/CrossPack-AVR-20131216/lib/gcc/avr/4.8.1/../../../../avr/lib/avr6/libm.a(fp_split3.o)
                                                  /usr/local/CrossPack-AVR-20131216/lib/gcc/avr/4.8.1/../../../../avr/lib/avr6/libm.a(log.o)
                                                  /usr/local/CrossPack-AVR-20131216/lib/gcc/avr/4.8.1/../../../../avr/lib/avr6/libm.a(ldexp.o)
                                                  /usr/local/CrossPack-AVR-20131216/lib/gcc/avr/4.8.1/../../../../avr/lib/avr6/libm.a(exp.o)
                                                  /usr/local/CrossPack-AVR-20131216/lib/gcc/avr/4.8.1/../../../../avr/lib/avr6/libm.a(fixunssfsi.o)
__fp_szero                                        /usr/local/CrossPack-AVR-20131216/lib/gcc/avr/4.8.1/../../../../avr/lib/avr6/libm.a(fp_zero.o)
                                                  /usr/local/CrossPack-AVR-20131216/lib/gcc/avr/4.8.1/../../../../avr/lib/avr6/libm.a(ldexp.o)
                                                  /usr/local/CrossPack-AVR-20131216/lib/gcc/avr/4.8.1/../../../../avr/lib/avr6/libm.a(mulsf3x.o)
                                                  /usr/local/CrossPack-AVR-20131216/lib/gcc/avr/4.8.1/../../../../avr/lib/avr6/libm.a(fixsfsi.o)
                                                  /usr/local/CrossPack-AVR-20131216/lib/gcc/avr/4.8.1/../../../../avr/lib/avr6/libm.a(divsf3x.o)
__fp_zero                                         /usr/local/CrossPack-AVR-20131216/lib/gcc/avr/4.8.1/../../../../avr/lib/avr6/libm.a(fp_zero.o)
                                                  /usr/local/CrossPack-AVR-20131216/lib/gcc/avr/4.8.1/../../../../avr/lib/avr6/libm.a(exp.o)
                                                  /usr/local/CrossPack-AVR-20131216/lib/gcc/avr/4.8.1/../../../../avr/lib/avr6/libm.a(fixunssfsi.o)
                                                  /usr/local/CrossPack-AVR-20131216/lib/gcc/avr/4.8.1/../../../../avr/lib/avr6/libm.a(addsf3x.o)
__heap_end                                        /usr/local/CrossPack-AVR-20131216/lib/gcc/avr/4.8.1/../../../../avr/lib/avr6/crtm2560.o
__init                                            /usr/local/CrossPack-AVR-20131216/lib/gcc/avr/4.8.1/../../../../avr/lib/avr6/crtm2560.o
__lshrdi3                                         /usr/local/CrossPack-AVR-20131216/lib/gcc/avr/4.8.1/avr6/libgcc.a(_ashrdi3.o)
                                                  darjeeling.a(wkpf_properties.o)
                                                  darjeeling.a(execution.o)
__moddi3                                          /usr/local/CrossPack-AVR-20131216/lib/gcc/avr/4.8.1/avr6/libgcc.a(_divdi3.o)
                                                  darjeeling.a(execution.o)
__muldi3                                          /usr/local/CrossPack-AVR-20131216/lib/gcc/avr/4.8.1/avr6/libgcc.a(_muldi3.o)
                                                  darjeeling.a(execution.o)
__muldi3_6                                        /usr/local/CrossPack-AVR-20131216/lib/gcc/avr/4.8.1/avr6/libgcc.a(_muldi3_6.o)
                                                  /usr/local/CrossPack-AVR-20131216/lib/gcc/avr/4.8.1/avr6/libgcc.a(_muldi3.o)
__mulsf3                                          /usr/local/CrossPack-AVR-20131216/lib/gcc/avr/4.8.1/../../../../avr/lib/avr6/libm.a(mulsf3.o)
                                                  /usr/local/CrossPack-AVR-20131216/lib/gcc/avr/4.8.1/../../../../avr/lib/avr6/libm.a(pow.o)
                                                  darjeeling.a(wuclass_ir_sensor_update.o)
__mulsf3_pse                                      /usr/local/CrossPack-AVR-20131216/lib/gcc/avr/4.8.1/../../../../avr/lib/avr6/libm.a(mulsf3x.o)
                                                  /usr/local/CrossPack-AVR-20131216/lib/gcc/avr/4.8.1/../../../../avr/lib/avr6/libm.a(exp.o)
__mulsf3x                                         /usr/local/CrossPack-AVR-20131216/lib/gcc/avr/4.8.1/../../../../avr/lib/avr6/libm.a(mulsf3x.o)
                                                  /usr/local/CrossPack-AVR-20131216/lib/gcc/avr/4.8.1/../../../../avr/lib/avr6/libm.a(log.o)
                                                  /usr/local/CrossPack-AVR-20131216/lib/gcc/avr/4.8.1/../../../../avr/lib/avr6/libm.a(fp_powser.o)
                                                  /usr/local/CrossPack-AVR-20131216/lib/gcc/avr/4.8.1/../../../../avr/lib/avr6/libm.a(mulsf3.o)
__mulsi3                                          /usr/local/CrossPack-AVR-20131216/lib/gcc/avr/4.8.1/avr6/libgcc.a(_mulsi3.o)
                                                  darjeeling.a(execution.o)
__muluhisi3                                       /usr/local/CrossPack-AVR-20131216/lib/gcc/avr/4.8.1/avr6/libgcc.a(_muluhisi3.o)
                                                  /usr/local/CrossPack-AVR-20131216/lib/gcc/avr/4.8.1/avr6/libgcc.a(_mulsi3.o)
__negdi2                                          /usr/local/CrossPack-AVR-20131216/lib/gcc/avr/4.8.1/avr6/libgcc.a(_negdi2.o)
                                                  /usr/local/CrossPack-AVR-20131216/lib/gcc/avr/4.8.1/avr6/libgcc.a(_divdi3.o)
                                                  darjeeling.a(execution.o)
__negsi2                                          /usr/local/CrossPack-AVR-20131216/lib/gcc/avr/4.8.1/avr6/libgcc.a(_negsi2.o)
                                                  /usr/local/CrossPack-AVR-20131216/lib/gcc/avr/4.8.1/avr6/libgcc.a(_divmodsi4.o)
__prologue_saves__                                /usr/local/CrossPack-AVR-20131216/lib/gcc/avr/4.8.1/avr6/libgcc.a(_prologue.o)
                                                  /usr/local/CrossPack-AVR-20131216/lib/gcc/avr/4.8.1/avr6/libgcc.a(_divdi3.o)
__stack                                           /usr/local/CrossPack-AVR-20131216/lib/gcc/avr/4.8.1/../../../../avr/lib/avr6/crtm2560.o
__subdi3                                          /usr/local/CrossPack-AVR-20131216/lib/gcc/avr/4.8.1/avr6/libgcc.a(_subdi3.o)
                                                  darjeeling.a(radio_zwave.o)
                                                  darjeeling.a(execution.o)
                                                  darjeeling.a(vm.o)
__subsf3                                          /usr/local/CrossPack-AVR-20131216/lib/gcc/avr/4.8.1/../../../../avr/lib/avr6/libm.a(addsf3.o)
                                                  /usr/local/CrossPack-AVR-20131216/lib/gcc/avr/4.8.1/../../../../avr/lib/avr6/libm.a(modf.o)
                                                  darjeeling.a(wuclass_ir_sensor_update.o)
__tablejump2__                                    /usr/local/CrossPack-AVR-20131216/lib/gcc/avr/4.8.1/avr6/libgcc.a(_tablejump.o)
                                                  darjeeling.a(wkpf_comm.o)
                                                  darjeeling.a(java_lang_System.o)
                                                  darjeeling.a(jlib_wkpf_virtual.o)
                                                  darjeeling.a(jlib_darjeeling3.o)
                                                  darjeeling.a(execution.o)
                                                  darjeeling.a(panic.o)
__tablejump__                                     /usr/local/CrossPack-AVR-20131216/lib/gcc/avr/4.8.1/avr6/libgcc.a(_tablejump.o)
__udivdi3                                         /usr/local/CrossPack-AVR-20131216/lib/gcc/avr/4.8.1/avr6/libgcc.a(_udivdi3.o)
__udivdi3_umoddi3                                 /usr/local/CrossPack-AVR-20131216/lib/gcc/avr/4.8.1/avr6/libgcc.a(_udivdi3.o)
                                                  /usr/local/CrossPack-AVR-20131216/lib/gcc/avr/4.8.1/avr6/libgcc.a(_divdi3.o)
__udivmod64                                       /usr/local/CrossPack-AVR-20131216/lib/gcc/avr/4.8.1/avr6/libgcc.a(_udivmod64.o)
                                                  /usr/local/CrossPack-AVR-20131216/lib/gcc/avr/4.8.1/avr6/libgcc.a(_udivdi3.o)
                                                  /usr/local/CrossPack-AVR-20131216/lib/gcc/avr/4.8.1/avr6/libgcc.a(_divdi3.o)
__udivmodhi4                                      /usr/local/CrossPack-AVR-20131216/lib/gcc/avr/4.8.1/avr6/libgcc.a(_udivmodhi4.o)
                                                  darjeeling.a(wuclass_ultrasound_sensor_update.o)
                                                  darjeeling.a(wkreprog_comm.o)
__udivmodsi4                                      /usr/local/CrossPack-AVR-20131216/lib/gcc/avr/4.8.1/avr6/libgcc.a(_udivmodsi4.o)
                                                  /usr/local/CrossPack-AVR-20131216/lib/gcc/avr/4.8.1/avr6/libgcc.a(_divmodsi4.o)
                                                  darjeeling.a(uart.o)
                                                  darjeeling.a(avr.o)
__ultoa_invert                                    /usr/local/CrossPack-AVR-20131216/lib/gcc/avr/4.8.1/../../../../avr/lib/avr6/libc.a(ultoa_invert.o)
                                                  /usr/local/CrossPack-AVR-20131216/lib/gcc/avr/4.8.1/../../../../avr/lib/avr6/libc.a(vfprintf_std.o)
__umoddi3                                         /usr/local/CrossPack-AVR-20131216/lib/gcc/avr/4.8.1/avr6/libgcc.a(_udivdi3.o)
__umulhisi3                                       /usr/local/CrossPack-AVR-20131216/lib/gcc/avr/4.8.1/avr6/libgcc.a(_umulhisi3.o)
                                                  /usr/local/CrossPack-AVR-20131216/lib/gcc/avr/4.8.1/avr6/libgcc.a(_muldi3_6.o)
                                                  /usr/local/CrossPack-AVR-20131216/lib/gcc/avr/4.8.1/avr6/libgcc.a(_muldi3.o)
                                                  /usr/local/CrossPack-AVR-20131216/lib/gcc/avr/4.8.1/avr6/libgcc.a(_muluhisi3.o)
__vector_1                                        /usr/local/CrossPack-AVR-20131216/lib/gcc/avr/4.8.1/../../../../avr/lib/avr6/crtm2560.o
__vector_10                                       /usr/local/CrossPack-AVR-20131216/lib/gcc/avr/4.8.1/../../../../avr/lib/avr6/crtm2560.o
__vector_11                                       /usr/local/CrossPack-AVR-20131216/lib/gcc/avr/4.8.1/../../../../avr/lib/avr6/crtm2560.o
__vector_12                                       /usr/local/CrossPack-AVR-20131216/lib/gcc/avr/4.8.1/../../../../avr/lib/avr6/crtm2560.o
__vector_13                                       /usr/local/CrossPack-AVR-20131216/lib/gcc/avr/4.8.1/../../../../avr/lib/avr6/crtm2560.o
__vector_14                                       /usr/local/CrossPack-AVR-20131216/lib/gcc/avr/4.8.1/../../../../avr/lib/avr6/crtm2560.o
__vector_15                                       /usr/local/CrossPack-AVR-20131216/lib/gcc/avr/4.8.1/../../../../avr/lib/avr6/crtm2560.o
__vector_16                                       /usr/local/CrossPack-AVR-20131216/lib/gcc/avr/4.8.1/../../../../avr/lib/avr6/crtm2560.o
__vector_17                                       /usr/local/CrossPack-AVR-20131216/lib/gcc/avr/4.8.1/../../../../avr/lib/avr6/crtm2560.o
__vector_18                                       /usr/local/CrossPack-AVR-20131216/lib/gcc/avr/4.8.1/../../../../avr/lib/avr6/crtm2560.o
__vector_19                                       /usr/local/CrossPack-AVR-20131216/lib/gcc/avr/4.8.1/../../../../avr/lib/avr6/crtm2560.o
__vector_2                                        /usr/local/CrossPack-AVR-20131216/lib/gcc/avr/4.8.1/../../../../avr/lib/avr6/crtm2560.o
__vector_20                                       /usr/local/CrossPack-AVR-20131216/lib/gcc/avr/4.8.1/../../../../avr/lib/avr6/crtm2560.o
__vector_21                                       /usr/local/CrossPack-AVR-20131216/lib/gcc/avr/4.8.1/../../../../avr/lib/avr6/crtm2560.o
__vector_22                                       /usr/local/CrossPack-AVR-20131216/lib/gcc/avr/4.8.1/../../../../avr/lib/avr6/crtm2560.o
__vector_23                                       darjeeling.a(avr.o)
                                                  /usr/local/CrossPack-AVR-20131216/lib/gcc/avr/4.8.1/../../../../avr/lib/avr6/crtm2560.o
__vector_24                                       /usr/local/CrossPack-AVR-20131216/lib/gcc/avr/4.8.1/../../../../avr/lib/avr6/crtm2560.o
__vector_25                                       darjeeling.a(uart.o)
                                                  /usr/local/CrossPack-AVR-20131216/lib/gcc/avr/4.8.1/../../../../avr/lib/avr6/crtm2560.o
__vector_26                                       /usr/local/CrossPack-AVR-20131216/lib/gcc/avr/4.8.1/../../../../avr/lib/avr6/crtm2560.o
__vector_27                                       /usr/local/CrossPack-AVR-20131216/lib/gcc/avr/4.8.1/../../../../avr/lib/avr6/crtm2560.o
__vector_28                                       /usr/local/CrossPack-AVR-20131216/lib/gcc/avr/4.8.1/../../../../avr/lib/avr6/crtm2560.o
__vector_29                                       /usr/local/CrossPack-AVR-20131216/lib/gcc/avr/4.8.1/../../../../avr/lib/avr6/crtm2560.o
__vector_3                                        /usr/local/CrossPack-AVR-20131216/lib/gcc/avr/4.8.1/../../../../avr/lib/avr6/crtm2560.o
__vector_30                                       /usr/local/CrossPack-AVR-20131216/lib/gcc/avr/4.8.1/../../../../avr/lib/avr6/crtm2560.o
__vector_31                                       /usr/local/CrossPack-AVR-20131216/lib/gcc/avr/4.8.1/../../../../avr/lib/avr6/crtm2560.o
__vector_32                                       /usr/local/CrossPack-AVR-20131216/lib/gcc/avr/4.8.1/../../../../avr/lib/avr6/crtm2560.o
__vector_33                                       /usr/local/CrossPack-AVR-20131216/lib/gcc/avr/4.8.1/../../../../avr/lib/avr6/crtm2560.o
__vector_34                                       /usr/local/CrossPack-AVR-20131216/lib/gcc/avr/4.8.1/../../../../avr/lib/avr6/crtm2560.o
__vector_35                                       /usr/local/CrossPack-AVR-20131216/lib/gcc/avr/4.8.1/../../../../avr/lib/avr6/crtm2560.o
__vector_36                                       darjeeling.a(uart.o)
                                                  /usr/local/CrossPack-AVR-20131216/lib/gcc/avr/4.8.1/../../../../avr/lib/avr6/crtm2560.o
__vector_37                                       /usr/local/CrossPack-AVR-20131216/lib/gcc/avr/4.8.1/../../../../avr/lib/avr6/crtm2560.o
__vector_38                                       /usr/local/CrossPack-AVR-20131216/lib/gcc/avr/4.8.1/../../../../avr/lib/avr6/crtm2560.o
__vector_39                                       /usr/local/CrossPack-AVR-20131216/lib/gcc/avr/4.8.1/../../../../avr/lib/avr6/crtm2560.o
__vector_4                                        /usr/local/CrossPack-AVR-20131216/lib/gcc/avr/4.8.1/../../../../avr/lib/avr6/crtm2560.o
__vector_40                                       /usr/local/CrossPack-AVR-20131216/lib/gcc/avr/4.8.1/../../../../avr/lib/avr6/crtm2560.o
__vector_41                                       /usr/local/CrossPack-AVR-20131216/lib/gcc/avr/4.8.1/../../../../avr/lib/avr6/crtm2560.o
__vector_42                                       /usr/local/CrossPack-AVR-20131216/lib/gcc/avr/4.8.1/../../../../avr/lib/avr6/crtm2560.o
__vector_43                                       /usr/local/CrossPack-AVR-20131216/lib/gcc/avr/4.8.1/../../../../avr/lib/avr6/crtm2560.o
__vector_44                                       /usr/local/CrossPack-AVR-20131216/lib/gcc/avr/4.8.1/../../../../avr/lib/avr6/crtm2560.o
__vector_45                                       /usr/local/CrossPack-AVR-20131216/lib/gcc/avr/4.8.1/../../../../avr/lib/avr6/crtm2560.o
__vector_46                                       /usr/local/CrossPack-AVR-20131216/lib/gcc/avr/4.8.1/../../../../avr/lib/avr6/crtm2560.o
__vector_47                                       /usr/local/CrossPack-AVR-20131216/lib/gcc/avr/4.8.1/../../../../avr/lib/avr6/crtm2560.o
__vector_48                                       /usr/local/CrossPack-AVR-20131216/lib/gcc/avr/4.8.1/../../../../avr/lib/avr6/crtm2560.o
__vector_49                                       /usr/local/CrossPack-AVR-20131216/lib/gcc/avr/4.8.1/../../../../avr/lib/avr6/crtm2560.o
__vector_5                                        /usr/local/CrossPack-AVR-20131216/lib/gcc/avr/4.8.1/../../../../avr/lib/avr6/crtm2560.o
__vector_50                                       /usr/local/CrossPack-AVR-20131216/lib/gcc/avr/4.8.1/../../../../avr/lib/avr6/crtm2560.o
__vector_51                                       darjeeling.a(uart.o)
                                                  /usr/local/CrossPack-AVR-20131216/lib/gcc/avr/4.8.1/../../../../avr/lib/avr6/crtm2560.o
__vector_52                                       /usr/local/CrossPack-AVR-20131216/lib/gcc/avr/4.8.1/../../../../avr/lib/avr6/crtm2560.o
__vector_53                                       /usr/local/CrossPack-AVR-20131216/lib/gcc/avr/4.8.1/../../../../avr/lib/avr6/crtm2560.o
__vector_54                                       darjeeling.a(uart.o)
                                                  /usr/local/CrossPack-AVR-20131216/lib/gcc/avr/4.8.1/../../../../avr/lib/avr6/crtm2560.o
__vector_55                                       /usr/local/CrossPack-AVR-20131216/lib/gcc/avr/4.8.1/../../../../avr/lib/avr6/crtm2560.o
__vector_56                                       /usr/local/CrossPack-AVR-20131216/lib/gcc/avr/4.8.1/../../../../avr/lib/avr6/crtm2560.o
__vector_6                                        /usr/local/CrossPack-AVR-20131216/lib/gcc/avr/4.8.1/../../../../avr/lib/avr6/crtm2560.o
__vector_7                                        /usr/local/CrossPack-AVR-20131216/lib/gcc/avr/4.8.1/../../../../avr/lib/avr6/crtm2560.o
__vector_8                                        /usr/local/CrossPack-AVR-20131216/lib/gcc/avr/4.8.1/../../../../avr/lib/avr6/crtm2560.o
__vector_9                                        /usr/local/CrossPack-AVR-20131216/lib/gcc/avr/4.8.1/../../../../avr/lib/avr6/crtm2560.o
__vector_default                                  /usr/local/CrossPack-AVR-20131216/lib/gcc/avr/4.8.1/../../../../avr/lib/avr6/crtm2560.o
__vectors                                         /usr/local/CrossPack-AVR-20131216/lib/gcc/avr/4.8.1/../../../../avr/lib/avr6/crtm2560.o
_exit                                             /usr/local/CrossPack-AVR-20131216/lib/gcc/avr/4.8.1/avr6/libgcc.a(_exit.o)
ack_got                                           darjeeling.a(radio_zwave.o)
addr_wkcomm_to_zwave                              darjeeling.a(routing_none.o)
addr_zwave_to_wkcomm                              darjeeling.a(routing_none.o)
avr_delay                                         darjeeling.a(avr.o)
                                                  darjeeling.a(djtimer.o)
avr_flash_buf_len                                 darjeeling.a(wkreprog_impl.o)
avr_flash_pageaddress                             darjeeling.a(wkreprog_impl.o)
avr_flash_pagebuffer                              darjeeling.a(wkreprog_impl.o)
avr_flash_program_page                            darjeeling.a(wkreprog_impl.o)
avr_millis                                        darjeeling.a(avr.o)
                                                  darjeeling.a(djtimer.o)
avr_serialInit                                    darjeeling.a(avr.o)
                                                  darjeeling.a(main.o)
avr_serialPrint                                   darjeeling.a(avr.o)
avr_serialPrintf                                  darjeeling.a(avr.o)
                                                  darjeeling.a(radio_zwave_platform_dependent.o)
                                                  darjeeling.a(radio_zwave.o)
                                                  darjeeling.a(wuclass_ultrasound_sensor_update.o)
                                                  darjeeling.a(wuclass_pir_sensor.o)
                                                  darjeeling.a(wuclass_or_gate_update.o)
                                                  darjeeling.a(wuclass_magnetic_sensor_update.o)
                                                  darjeeling.a(wuclass_ir_sensor_update.o)
                                                  darjeeling.a(wuclass_LED_update.o)
                                                  darjeeling.a(wkpf_comm.o)
                                                  darjeeling.a(javax_wukong_wkpf_WKPF.o)
                                                  darjeeling.a(javax_darjeeling_Darjeeling.o)
                                                  darjeeling.a(execution.o)
                                                  darjeeling.a(vm_gc.o)
                                                  darjeeling.a(vm.o)
                                                  darjeeling.a(panic.o)
                                                  darjeeling.a(hooks.o)
                                                  darjeeling.a(debug.o)
avr_serialVPrint                                  darjeeling.a(avr.o)
avr_serialWrite                                   darjeeling.a(avr.o)
avr_timerInit                                     darjeeling.a(avr.o)
                                                  darjeeling.a(djtimer.o)
base_init                                         darjeeling.a(base_init.o)
                                                  darjeeling.a(GENERATEDlibinit.o)
base_native_handler                               darjeeling.a(jlib_base.o)
                                                  darjeeling.a(GENERATEDlibinit.o)
cmd                                               darjeeling.a(radio_zwave.o)
core_init                                         darjeeling.a(core.o)
                                                  darjeeling.a(main.o)
darjeeling3_init                                  darjeeling.a(darjeeling3_init.o)
                                                  darjeeling.a(GENERATEDlibinit.o)
darjeeling3_native_handler                        darjeeling.a(jlib_darjeeling3.o)
                                                  darjeeling.a(GENERATEDlibinit.o)
darjeeling_debug_indent_index                     darjeeling.a(debug.o)
                                                  darjeeling.a(radio_zwave_platform_dependent.o)
                                                  darjeeling.a(radio_zwave.o)
                                                  darjeeling.a(wuclass_ultrasound_sensor_update.o)
                                                  darjeeling.a(wuclass_pir_sensor.o)
                                                  darjeeling.a(wuclass_or_gate_update.o)
                                                  darjeeling.a(wuclass_magnetic_sensor_update.o)
                                                  darjeeling.a(wuclass_ir_sensor_update.o)
                                                  darjeeling.a(wuclass_LED_update.o)
                                                  darjeeling.a(wkreprog_impl.o)
                                                  darjeeling.a(wkreprog_comm.o)
                                                  darjeeling.a(wkpf_wuobjects.o)
                                                  darjeeling.a(wkpf_wuclasses.o)
                                                  darjeeling.a(wkpf_virtual_wuclasses.o)
                                                  darjeeling.a(wkpf_properties.o)
                                                  darjeeling.a(wkpf_main.o)
                                                  darjeeling.a(wkpf_links.o)
                                                  darjeeling.a(wkpf_gc.o)
                                                  darjeeling.a(wkpf_comm.o)
                                                  darjeeling.a(wkcomm.o)
                                                  darjeeling.a(javax_wukong_wkpf_WKPF.o)
                                                  darjeeling.a(javax_darjeeling_vm_Infusion.o)
                                                  darjeeling.a(java_lang_Thread.o)
                                                  darjeeling.a(java_lang_Runtime.o)
                                                  darjeeling.a(GENERATEDnative_wuclasses.o)
                                                  darjeeling.a(infusion.o)
                                                  darjeeling.a(global_id.o)
                                                  darjeeling.a(execution.o)
                                                  darjeeling.a(array.o)
                                                  darjeeling.a(vmthread.o)
                                                  darjeeling.a(vm_gc.o)
                                                  darjeeling.a(vm.o)
                                                  darjeeling.a(panic.o)
                                                  darjeeling.a(hooks.o)
                                                  darjeeling.a(heap.o)
                                                  darjeeling.a(main.o)
darjeeling_debug_nesting_level                    darjeeling.a(debug.o)
                                                  darjeeling.a(radio_zwave_platform_dependent.o)
                                                  darjeeling.a(radio_zwave.o)
                                                  darjeeling.a(wuclass_ultrasound_sensor_update.o)
                                                  darjeeling.a(wuclass_pir_sensor.o)
                                                  darjeeling.a(wuclass_or_gate_update.o)
                                                  darjeeling.a(wuclass_magnetic_sensor_update.o)
                                                  darjeeling.a(wuclass_ir_sensor_update.o)
                                                  darjeeling.a(wuclass_LED_update.o)
                                                  darjeeling.a(wkreprog_impl.o)
                                                  darjeeling.a(wkreprog_comm.o)
                                                  darjeeling.a(wkpf_wuobjects.o)
                                                  darjeeling.a(wkpf_wuclasses.o)
                                                  darjeeling.a(wkpf_virtual_wuclasses.o)
                                                  darjeeling.a(wkpf_properties.o)
                                                  darjeeling.a(wkpf_main.o)
                                                  darjeeling.a(wkpf_links.o)
                                                  darjeeling.a(wkpf_gc.o)
                                                  darjeeling.a(wkpf_comm.o)
                                                  darjeeling.a(wkcomm.o)
                                                  darjeeling.a(javax_wukong_wkpf_WKPF.o)
                                                  darjeeling.a(javax_darjeeling_vm_Infusion.o)
                                                  darjeeling.a(java_lang_Thread.o)
                                                  darjeeling.a(java_lang_Runtime.o)
                                                  darjeeling.a(GENERATEDnative_wuclasses.o)
                                                  darjeeling.a(infusion.o)
                                                  darjeeling.a(global_id.o)
                                                  darjeeling.a(execution.o)
                                                  darjeeling.a(array.o)
                                                  darjeeling.a(vmthread.o)
                                                  darjeeling.a(vm_gc.o)
                                                  darjeeling.a(vm.o)
                                                  darjeeling.a(panic.o)
                                                  darjeeling.a(hooks.o)
                                                  darjeeling.a(heap.o)
                                                  darjeeling.a(main.o)
di_app_archive                                    darjeeling.a(wkreprog.o)
                                                  darjeeling.a(wkpf_links.o)
                                                  darjeeling.a(djarchive.o)
                                                  darjeeling.a(main.o)
di_app_infusion_archive_data                      darjeeling.a(app_infusions.o)
                                                  darjeeling.a(wkreprog_impl.o)
                                                  darjeeling.a(main.o)
di_lib_infusions_archive_data                     darjeeling.a(lib_infusions.o)
                                                  darjeeling.a(main.o)
dj_archive_get_file                               darjeeling.a(djarchive.o)
                                                  darjeeling.a(wkreprog.o)
                                                  darjeeling.a(wkpf_main.o)
                                                  darjeeling.a(wkpf_links.o)
                                                  darjeeling.a(vm.o)
dj_archive_number_of_files                        darjeeling.a(djarchive.o)
                                                  darjeeling.a(wkreprog.o)
                                                  darjeeling.a(wkpf_main.o)
                                                  darjeeling.a(wkpf_links.o)
                                                  darjeeling.a(vm.o)
dj_core_pollingHook                               darjeeling.a(core.o)
                                                  darjeeling.a(wkpf_main.o)
                                                  darjeeling.a(wkcomm_init.o)
                                                  darjeeling.a(execution.o)
                                                  darjeeling.a(panic.o)
                                                  darjeeling.a(main.o)
dj_core_shutdownHook                              darjeeling.a(core.o)
                                                  darjeeling.a(wkreprog_comm.o)
dj_di_strEquals                                   darjeeling.a(util.o)
                                                  darjeeling.a(vm.o)
dj_di_strEqualsDirectStr                          darjeeling.a(util.o)
                                                  darjeeling.a(vm.o)
dj_dump_int_array                                 darjeeling.a(debug.o)
dj_dump_stack                                     darjeeling.a(debug.o)
dj_exec_activate_thread                           darjeeling.a(execution.o)
                                                  darjeeling.a(vm_gc.o)
                                                  darjeeling.a(vm.o)
dj_exec_breakExecution                            darjeeling.a(execution.o)
                                                  darjeeling.a(javax_darjeeling_vm_Infusion.o)
                                                  darjeeling.a(java_lang_Thread.o)
                                                  darjeeling.a(java_lang_Object.o)
dj_exec_createAndThrow                            darjeeling.a(execution.o)
                                                  darjeeling.a(javax_wukong_wkpf_WKPF.o)
                                                  darjeeling.a(javax_darjeeling_vm_Infusion.o)
                                                  darjeeling.a(java_lang_Thread.o)
                                                  darjeeling.a(java_lang_System.o)
                                                  darjeeling.a(java_lang_Object.o)
dj_exec_deactivateThread                          darjeeling.a(execution.o)
                                                  darjeeling.a(vm_gc.o)
                                                  darjeeling.a(vm.o)
dj_exec_getCurrentInfusion                        darjeeling.a(execution.o)
                                                  darjeeling.a(global_id.o)
dj_exec_getCurrentThread                          darjeeling.a(execution.o)
                                                  darjeeling.a(javax_darjeeling_vm_Infusion.o)
                                                  darjeeling.a(java_lang_Thread.o)
                                                  darjeeling.a(java_lang_Object.o)
                                                  darjeeling.a(vm_gc.o)
dj_exec_getVM                                     darjeeling.a(execution.o)
                                                  darjeeling.a(javax_wukong_wkpf_WKPF.o)
                                                  darjeeling.a(javax_darjeeling_vm_Infusion.o)
                                                  darjeeling.a(javax_darjeeling_Darjeeling.o)
                                                  darjeeling.a(java_lang_Thread.o)
                                                  darjeeling.a(java_lang_System.o)
                                                  darjeeling.a(java_lang_Object.o)
                                                  darjeeling.a(global_id.o)
                                                  darjeeling.a(vm_gc.o)
                                                  darjeeling.a(vm.o)
dj_exec_run                                       darjeeling.a(execution.o)
                                                  darjeeling.a(vm.o)
dj_exec_runlevel                                  darjeeling.a(wkreprog_comm.o)
                                                  darjeeling.a(wkpf_main.o)
                                                  darjeeling.a(wkpf_comm.o)
                                                  darjeeling.a(execution.o)
                                                  darjeeling.a(vm.o)
                                                  darjeeling.a(panic.o)
                                                  darjeeling.a(core.o)
dj_exec_setVM                                     darjeeling.a(execution.o)
                                                  darjeeling.a(vm.o)
dj_exec_stackPeekInt                              darjeeling.a(execution.o)
dj_exec_stackPeekLong                             darjeeling.a(execution.o)
dj_exec_stackPeekRef                              darjeeling.a(execution.o)
                                                  darjeeling.a(java_lang_Object.o)
dj_exec_stackPeekShort                            darjeeling.a(execution.o)
dj_exec_stackPopInt                               darjeeling.a(execution.o)
                                                  darjeeling.a(javax_darjeeling_Darjeeling.o)
                                                  darjeeling.a(java_lang_System.o)
                                                  darjeeling.a(java_lang_Object.o)
dj_exec_stackPopLong                              darjeeling.a(execution.o)
                                                  darjeeling.a(java_lang_Thread.o)
dj_exec_stackPopRef                               darjeeling.a(execution.o)
                                                  darjeeling.a(javax_wukong_wkpf_WKPF.o)
                                                  darjeeling.a(javax_darjeeling_vm_Infusion.o)
                                                  darjeeling.a(javax_darjeeling_Darjeeling.o)
                                                  darjeeling.a(java_lang_Thread.o)
                                                  darjeeling.a(java_lang_System.o)
dj_exec_stackPopShort                             darjeeling.a(execution.o)
                                                  darjeeling.a(javax_wukong_wkpf_WKPF.o)
                                                  darjeeling.a(javax_darjeeling_vm_Infusion.o)
                                                  darjeeling.a(javax_darjeeling_Darjeeling.o)
                                                  darjeeling.a(java_lang_Thread.o)
dj_exec_stackPushInt                              darjeeling.a(execution.o)
                                                  darjeeling.a(javax_darjeeling_Darjeeling.o)
                                                  darjeeling.a(java_lang_Thread.o)
                                                  darjeeling.a(java_lang_Runtime.o)
                                                  darjeeling.a(java_lang_Object.o)
dj_exec_stackPushLong                             darjeeling.a(execution.o)
                                                  darjeeling.a(java_lang_System.o)
dj_exec_stackPushRef                              darjeeling.a(execution.o)
                                                  darjeeling.a(javax_wukong_wkpf_WKPF.o)
                                                  darjeeling.a(javax_darjeeling_vm_Infusion.o)
                                                  darjeeling.a(javax_darjeeling_Darjeeling.o)
                                                  darjeeling.a(java_lang_Object.o)
dj_exec_stackPushShort                            darjeeling.a(execution.o)
                                                  darjeeling.a(javax_wukong_wkpf_WKPF.o)
                                                  darjeeling.a(javax_darjeeling_vm_Infusion.o)
                                                  darjeeling.a(javax_darjeeling_Darjeeling.o)
                                                  darjeeling.a(java_lang_Thread.o)
dj_exec_throw                                     darjeeling.a(execution.o)
dj_exec_throwHere                                 darjeeling.a(execution.o)
                                                  darjeeling.a(javax_darjeeling_Darjeeling.o)
dj_exec_updatePointers                            darjeeling.a(execution.o)
                                                  darjeeling.a(vm_gc.o)
dj_frame_create                                   darjeeling.a(vmthread.o)
                                                  darjeeling.a(java_lang_Thread.o)
                                                  darjeeling.a(execution.o)
                                                  darjeeling.a(vm.o)
dj_frame_markRootSet                              darjeeling.a(vmthread.o)
dj_frame_updatePointers                           darjeeling.a(vmthread.o)
                                                  darjeeling.a(vm_gc.o)
dj_global_id_equals                               darjeeling.a(global_id.o)
dj_global_id_getClassDefinition                   darjeeling.a(global_id.o)
                                                  darjeeling.a(java_lang_Object.o)
                                                  darjeeling.a(execution.o)
dj_global_id_getMethodImplementation              darjeeling.a(global_id.o)
                                                  darjeeling.a(java_lang_Thread.o)
                                                  darjeeling.a(execution.o)
                                                  darjeeling.a(vmthread.o)
dj_global_id_getRuntimeClassId                    darjeeling.a(global_id.o)
                                                  darjeeling.a(execution.o)
                                                  darjeeling.a(vm.o)
dj_global_id_getString                            darjeeling.a(global_id.o)
dj_global_id_implements                           darjeeling.a(global_id.o)
dj_global_id_isEqualToOrChildOf                   darjeeling.a(global_id.o)
dj_global_id_isJavaLangObject                     darjeeling.a(global_id.o)
                                                  darjeeling.a(execution.o)
dj_global_id_lookupVirtualMethod                  darjeeling.a(global_id.o)
                                                  darjeeling.a(java_lang_Thread.o)
                                                  darjeeling.a(execution.o)
dj_global_id_mapToInfusion                        darjeeling.a(global_id.o)
dj_global_id_resolve                              darjeeling.a(global_id.o)
                                                  darjeeling.a(java_lang_Object.o)
                                                  darjeeling.a(execution.o)
dj_global_id_testClassType                        darjeeling.a(global_id.o)
                                                  darjeeling.a(java_lang_System.o)
                                                  darjeeling.a(execution.o)
dj_global_id_testType                             darjeeling.a(global_id.o)
                                                  darjeeling.a(execution.o)
dj_hook_add                                       darjeeling.a(hooks.o)
                                                  darjeeling.a(wkreprog_init.o)
                                                  darjeeling.a(wkpf_init.o)
                                                  darjeeling.a(wkcomm_init.o)
                                                  darjeeling.a(vm_init.o)
dj_hook_call                                      darjeeling.a(hooks.o)
                                                  darjeeling.a(wkreprog_comm.o)
                                                  darjeeling.a(wkpf_main.o)
                                                  darjeeling.a(wkcomm.o)
                                                  darjeeling.a(execution.o)
                                                  darjeeling.a(panic.o)
                                                  darjeeling.a(heap.o)
                                                  darjeeling.a(main.o)
dj_infusion_create                                darjeeling.a(infusion.o)
                                                  darjeeling.a(vm.o)
dj_infusion_destroy                               darjeeling.a(infusion.o)
dj_infusion_getClassDefinition                    darjeeling.a(infusion.o)
                                                  darjeeling.a(global_id.o)
                                                  darjeeling.a(vm.o)
dj_infusion_getMethodImplementation               darjeeling.a(infusion.o)
                                                  darjeeling.a(global_id.o)
dj_infusion_getName                               darjeeling.a(infusion.o)
                                                  darjeeling.a(global_id.o)
                                                  darjeeling.a(execution.o)
                                                  darjeeling.a(vm.o)
dj_infusion_getReferencedInfusionIndex            darjeeling.a(infusion.o)
                                                  darjeeling.a(global_id.o)
                                                  darjeeling.a(vm.o)
dj_infusion_getString                             darjeeling.a(infusion.o)
                                                  darjeeling.a(global_id.o)
dj_infusion_markRootSet                           darjeeling.a(infusion.o)
                                                  darjeeling.a(vm_gc.o)
dj_infusion_updatePointers                        darjeeling.a(infusion.o)
                                                  darjeeling.a(vm_gc.o)
dj_int_array_create                               darjeeling.a(array.o)
                                                  darjeeling.a(javax_darjeeling_vm_Infusion.o)
                                                  darjeeling.a(jstring.o)
                                                  darjeeling.a(execution.o)
dj_int_array_destroy                              darjeeling.a(array.o)
dj_jstring_create                                 darjeeling.a(jstring.o)
dj_jstring_createFromGlobalId                     darjeeling.a(jstring.o)
                                                  darjeeling.a(java_lang_Object.o)
                                                  darjeeling.a(execution.o)
dj_jstring_createFromStr                          darjeeling.a(jstring.o)
dj_libraries_init                                 darjeeling.a(GENERATEDlibinit.o)
                                                  darjeeling.a(core.o)
dj_mem_addSafePointer                             darjeeling.a(heap.o)
                                                  darjeeling.a(wkpf_wuobjects.o)
                                                  darjeeling.a(wkpf_virtual_wuclasses.o)
                                                  darjeeling.a(java_lang_Thread.o)
                                                  darjeeling.a(jstring.o)
                                                  darjeeling.a(execution.o)
                                                  darjeeling.a(vmthread.o)
                                                  darjeeling.a(vm.o)
dj_mem_alloc                                      darjeeling.a(heap.o)
                                                  darjeeling.a(wkpf_wuobjects.o)
                                                  darjeeling.a(wkpf_virtual_wuclasses.o)
                                                  darjeeling.a(object.o)
                                                  darjeeling.a(infusion.o)
                                                  darjeeling.a(array.o)
                                                  darjeeling.a(vmthread.o)
                                                  darjeeling.a(vm.o)
dj_mem_compact                                    darjeeling.a(heap.o)
dj_mem_countSafePointers                          darjeeling.a(heap.o)
dj_mem_dump                                       darjeeling.a(heap.o)
                                                  darjeeling.a(wkpf_gc.o)
dj_mem_free                                       darjeeling.a(heap.o)
                                                  darjeeling.a(wkpf_wuobjects.o)
                                                  darjeeling.a(jstring.o)
                                                  darjeeling.a(infusion.o)
                                                  darjeeling.a(execution.o)
                                                  darjeeling.a(array.o)
                                                  darjeeling.a(vmthread.o)
                                                  darjeeling.a(vm.o)
dj_mem_gc                                         darjeeling.a(heap.o)
                                                  darjeeling.a(java_lang_Runtime.o)
dj_mem_getFirstChunk                              darjeeling.a(heap.o)
                                                  darjeeling.a(vm_gc.o)
dj_mem_getFree                                    darjeeling.a(heap.o)
                                                  darjeeling.a(javax_darjeeling_Darjeeling.o)
                                                  darjeeling.a(java_lang_Runtime.o)
dj_mem_getNextChunk                               darjeeling.a(heap.o)
                                                  darjeeling.a(vm_gc.o)
dj_mem_getSize                                    darjeeling.a(heap.o)
                                                  darjeeling.a(java_lang_Runtime.o)
dj_mem_init                                       darjeeling.a(heap.o)
                                                  darjeeling.a(core.o)
dj_mem_markObjectHook                             darjeeling.a(heap.o)
                                                  darjeeling.a(vm_init.o)
dj_mem_markRootSetHook                            darjeeling.a(heap.o)
                                                  darjeeling.a(wkpf_init.o)
                                                  darjeeling.a(vm_init.o)
dj_mem_postGCHook                                 darjeeling.a(heap.o)
                                                  darjeeling.a(vm_init.o)
dj_mem_removeSafePointer                          darjeeling.a(heap.o)
                                                  darjeeling.a(wkpf_wuobjects.o)
                                                  darjeeling.a(wkpf_virtual_wuclasses.o)
                                                  darjeeling.a(java_lang_Thread.o)
                                                  darjeeling.a(jstring.o)
                                                  darjeeling.a(execution.o)
                                                  darjeeling.a(vmthread.o)
                                                  darjeeling.a(vm.o)
dj_mem_shiftRuntimeIDs                            darjeeling.a(heap.o)
                                                  darjeeling.a(vm.o)
dj_mem_updateReferenceHook                        darjeeling.a(heap.o)
                                                  darjeeling.a(wkpf_init.o)
                                                  darjeeling.a(vm_init.o)
dj_monitor_block_create                           darjeeling.a(vmthread.o)
                                                  darjeeling.a(vm.o)
dj_monitor_block_updatePointers                   darjeeling.a(vmthread.o)
                                                  darjeeling.a(vm_gc.o)
dj_monitor_markRootSet                            darjeeling.a(vmthread.o)
                                                  darjeeling.a(vm_gc.o)
dj_object_create                                  darjeeling.a(object.o)
                                                  darjeeling.a(jstring.o)
                                                  darjeeling.a(execution.o)
                                                  darjeeling.a(vm.o)
dj_object_getRuntimeId                            darjeeling.a(object.o)
                                                  darjeeling.a(execution.o)
dj_panic                                          darjeeling.a(panic.o)
                                                  darjeeling.a(wuclass_magnetic_sensor_update.o)
                                                  darjeeling.a(wkpf_main.o)
                                                  darjeeling.a(javax_darjeeling_Darjeeling.o)
                                                  darjeeling.a(wkpf_init.o)
                                                  darjeeling.a(execution.o)
                                                  darjeeling.a(array.o)
                                                  darjeeling.a(vm_gc.o)
                                                  darjeeling.a(vm.o)
                                                  darjeeling.a(heap.o)
                                                  darjeeling.a(debug.o)
dj_ref_array_create                               darjeeling.a(array.o)
                                                  darjeeling.a(execution.o)
dj_ref_array_destroy                              darjeeling.a(array.o)
dj_ref_array_updatePointers                       darjeeling.a(array.o)
                                                  darjeeling.a(vm_gc.o)
dj_thread_create                                  darjeeling.a(vmthread.o)
                                                  darjeeling.a(java_lang_Thread.o)
                                                  darjeeling.a(vm.o)
dj_thread_create_and_run                          darjeeling.a(vmthread.o)
                                                  darjeeling.a(vm.o)
dj_thread_destroy                                 darjeeling.a(vmthread.o)
                                                  darjeeling.a(vm.o)
dj_thread_markRootSet                             darjeeling.a(vmthread.o)
                                                  darjeeling.a(vm_gc.o)
dj_thread_popFrame                                darjeeling.a(vmthread.o)
                                                  darjeeling.a(execution.o)
dj_thread_pushFrame                               darjeeling.a(vmthread.o)
                                                  darjeeling.a(execution.o)
dj_thread_sleep                                   darjeeling.a(vmthread.o)
                                                  darjeeling.a(java_lang_Thread.o)
dj_thread_updatePointers                          darjeeling.a(vmthread.o)
                                                  darjeeling.a(vm_gc.o)
dj_thread_wait                                    darjeeling.a(vmthread.o)
                                                  darjeeling.a(java_lang_Object.o)
dj_timer_delay                                    darjeeling.a(djtimer.o)
                                                  darjeeling.a(radio_zwave_platform_dependent.o)
                                                  darjeeling.a(radio_zwave.o)
dj_timer_getTimeMillis                            darjeeling.a(djtimer.o)
                                                  darjeeling.a(uart.o)
                                                  darjeeling.a(radio_zwave_platform_dependent.o)
                                                  darjeeling.a(radio_zwave.o)
                                                  darjeeling.a(wkpf_wuobjects.o)
                                                  darjeeling.a(wkpf_properties.o)
                                                  darjeeling.a(wkcomm.o)
                                                  darjeeling.a(java_lang_System.o)
                                                  darjeeling.a(vmthread.o)
                                                  darjeeling.a(vm.o)
dj_timer_init                                     darjeeling.a(djtimer.o)
                                                  darjeeling.a(core.o)
dj_vm_activateThread                              darjeeling.a(vm.o)
dj_vm_addInfusion                                 darjeeling.a(vm.o)
dj_vm_addThread                                   darjeeling.a(vm.o)
                                                  darjeeling.a(java_lang_Thread.o)
dj_vm_checkFinishedThreads                        darjeeling.a(vm.o)
dj_vm_countInfusions                              darjeeling.a(vm.o)
                                                  darjeeling.a(javax_darjeeling_vm_Infusion.o)
dj_vm_countLiveThreads                            darjeeling.a(vm.o)
                                                  darjeeling.a(java_lang_Thread.o)
dj_vm_countThreads                                darjeeling.a(vm.o)
                                                  darjeeling.a(javax_darjeeling_Darjeeling.o)
dj_vm_create                                      darjeeling.a(vm.o)
dj_vm_createSysLibObject                          darjeeling.a(vm.o)
                                                  darjeeling.a(javax_darjeeling_Darjeeling.o)
                                                  darjeeling.a(execution.o)
dj_vm_destroy                                     darjeeling.a(vm.o)
dj_vm_getInfusion                                 darjeeling.a(vm.o)
                                                  darjeeling.a(javax_darjeeling_vm_Infusion.o)
dj_vm_getInfusionId                               darjeeling.a(vm.o)
dj_vm_getMonitor                                  darjeeling.a(vm.o)
                                                  darjeeling.a(execution.o)
dj_vm_getRuntimeClass                             darjeeling.a(vm.o)
                                                  darjeeling.a(java_lang_System.o)
                                                  darjeeling.a(java_lang_Object.o)
                                                  darjeeling.a(global_id.o)
                                                  darjeeling.a(execution.o)
dj_vm_getRuntimeClassDefinition                   darjeeling.a(vm.o)
                                                  darjeeling.a(jstring.o)
                                                  darjeeling.a(execution.o)
                                                  darjeeling.a(vm_gc.o)
dj_vm_getSysLibClassRuntimeId                     darjeeling.a(vm.o)
                                                  darjeeling.a(jstring.o)
dj_vm_getSystemInfusion                           darjeeling.a(vm.o)
                                                  darjeeling.a(javax_darjeeling_vm_Infusion.o)
                                                  darjeeling.a(java_lang_Thread.o)
                                                  darjeeling.a(global_id.o)
dj_vm_getThread                                   darjeeling.a(vm.o)
                                                  darjeeling.a(javax_darjeeling_Darjeeling.o)
dj_vm_getThreadById                               darjeeling.a(vm.o)
                                                  darjeeling.a(java_lang_Thread.o)
dj_vm_getVMSleepTime                              darjeeling.a(vm.o)
dj_vm_loadInfusion                                darjeeling.a(vm.o)
dj_vm_loadInfusionArchive                         darjeeling.a(vm.o)
dj_vm_lookupInfusion                              darjeeling.a(vm.o)
dj_vm_main                                        darjeeling.a(vm.o)
                                                  darjeeling.a(main.o)
dj_vm_mem_updatePointers                          darjeeling.a(vm.o)
                                                  darjeeling.a(vm_gc.o)
dj_vm_notify                                      darjeeling.a(vm.o)
                                                  darjeeling.a(java_lang_Object.o)
dj_vm_removeMonitor                               darjeeling.a(vm.o)
                                                  darjeeling.a(execution.o)
dj_vm_removeThread                                darjeeling.a(vm.o)
dj_vm_runClassInitialisers                        darjeeling.a(vm.o)
dj_vm_safeToUnload                                darjeeling.a(vm.o)
                                                  darjeeling.a(javax_darjeeling_vm_Infusion.o)
dj_vm_schedule                                    darjeeling.a(vm.o)
dj_vm_unloadInfusion                              darjeeling.a(vm.o)
                                                  darjeeling.a(javax_darjeeling_vm_Infusion.o)
dj_vm_wakeThreads                                 darjeeling.a(vm.o)
exit                                              /usr/local/CrossPack-AVR-20131216/lib/gcc/avr/4.8.1/avr6/libgcc.a(_exit.o)
                                                  darjeeling.a(panic.o)
                                                  /usr/local/CrossPack-AVR-20131216/lib/gcc/avr/4.8.1/../../../../avr/lib/avr6/crtm2560.o
exp                                               /usr/local/CrossPack-AVR-20131216/lib/gcc/avr/4.8.1/../../../../avr/lib/avr6/libm.a(exp.o)
                                                  /usr/local/CrossPack-AVR-20131216/lib/gcc/avr/4.8.1/../../../../avr/lib/avr6/libm.a(pow.o)
fputc                                             /usr/local/CrossPack-AVR-20131216/lib/gcc/avr/4.8.1/../../../../avr/lib/avr6/libc.a(fputc.o)
                                                  /usr/local/CrossPack-AVR-20131216/lib/gcc/avr/4.8.1/../../../../avr/lib/avr6/libc.a(vfprintf_std.o)
getPulseWidth                                     darjeeling.a(wuclass_ultrasound_sensor_update.o)
inverse                                           /usr/local/CrossPack-AVR-20131216/lib/gcc/avr/4.8.1/../../../../avr/lib/avr6/libm.a(inverse.o)
                                                  /usr/local/CrossPack-AVR-20131216/lib/gcc/avr/4.8.1/../../../../avr/lib/avr6/libm.a(exp.o)
java_lang_Object_int_hashCode                     darjeeling.a(java_lang_Object.o)
                                                  darjeeling.a(jlib_base.o)
java_lang_Object_java_lang_String_toString        darjeeling.a(java_lang_Object.o)
                                                  darjeeling.a(jlib_base.o)
java_lang_Object_void_notify                      darjeeling.a(java_lang_Object.o)
java_lang_Object_void_notifyAll                   darjeeling.a(java_lang_Object.o)
java_lang_Object_void_wait                        darjeeling.a(java_lang_Object.o)
java_lang_Object_void_wait_int                    darjeeling.a(java_lang_Object.o)
java_lang_Runtime_int_freeMemory                  darjeeling.a(java_lang_Runtime.o)
                                                  darjeeling.a(jlib_base.o)
java_lang_Runtime_int_totalMemory                 darjeeling.a(java_lang_Runtime.o)
                                                  darjeeling.a(jlib_base.o)
java_lang_Runtime_void_exit_int                   darjeeling.a(java_lang_Runtime.o)
                                                  darjeeling.a(jlib_base.o)
java_lang_Runtime_void_gc                         darjeeling.a(java_lang_Runtime.o)
                                                  darjeeling.a(jlib_base.o)
java_lang_System_long_currentTimeMillis           darjeeling.a(java_lang_System.o)
                                                  darjeeling.a(jlib_base.o)
java_lang_System_void_arraycopy_java_lang_Object_int_java_lang_Object_int_int darjeeling.a(java_lang_System.o)
                                                  darjeeling.a(jlib_base.o)
java_lang_Thread_int_activeCount                  darjeeling.a(java_lang_Thread.o)
                                                  darjeeling.a(jlib_base.o)
java_lang_Thread_short__create                    darjeeling.a(java_lang_Thread.o)
                                                  darjeeling.a(jlib_base.o)
java_lang_Thread_short__getCurrentThreadId        darjeeling.a(java_lang_Thread.o)
                                                  darjeeling.a(jlib_base.o)
java_lang_Thread_short__getStatus_short           darjeeling.a(java_lang_Thread.o)
                                                  darjeeling.a(jlib_base.o)
java_lang_Thread_void__setRunnable_short_java_lang_Runnable darjeeling.a(java_lang_Thread.o)
                                                  darjeeling.a(jlib_base.o)
java_lang_Thread_void__start_short                darjeeling.a(java_lang_Thread.o)
                                                  darjeeling.a(jlib_base.o)
java_lang_Thread_void_sleep_long                  darjeeling.a(java_lang_Thread.o)
                                                  darjeeling.a(jlib_base.o)
java_lang_Thread_void_yield                       darjeeling.a(java_lang_Thread.o)
                                                  darjeeling.a(jlib_base.o)
java_library_native_handlers                      darjeeling.a(GENERATEDlibinit.o)
                                                  darjeeling.a(main.o)
java_library_native_handlers_length               darjeeling.a(GENERATEDlibinit.o)
                                                  darjeeling.a(main.o)
javax_darjeeling_Darjeeling_int_getMemFree        darjeeling.a(javax_darjeeling_Darjeeling.o)
                                                  darjeeling.a(jlib_darjeeling3.o)
javax_darjeeling_Darjeeling_int_getNodeId         darjeeling.a(javax_darjeeling_Darjeeling.o)
                                                  darjeeling.a(jlib_darjeeling3.o)
javax_darjeeling_Darjeeling_int_random            darjeeling.a(javax_darjeeling_Darjeeling.o)
                                                  darjeeling.a(jlib_darjeeling3.o)
javax_darjeeling_Darjeeling_java_lang_Thread_getThread_short darjeeling.a(javax_darjeeling_Darjeeling.o)
                                                  darjeeling.a(jlib_darjeeling3.o)
javax_darjeeling_Darjeeling_short_getNrThreads    darjeeling.a(javax_darjeeling_Darjeeling.o)
                                                  darjeeling.a(jlib_darjeeling3.o)
javax_darjeeling_Darjeeling_void__print_java_lang_String darjeeling.a(javax_darjeeling_Darjeeling.o)
                                                  darjeeling.a(jlib_darjeeling3.o)
javax_darjeeling_Darjeeling_void_assertTrue_int_boolean darjeeling.a(javax_darjeeling_Darjeeling.o)
                                                  darjeeling.a(jlib_darjeeling3.o)
javax_darjeeling_vm_Infusion_char____getName_java_lang_Object darjeeling.a(javax_darjeeling_vm_Infusion.o)
                                                  darjeeling.a(jlib_base.o)
javax_darjeeling_vm_Infusion_java_lang_Object__getImportedInfusion_java_lang_Object_short darjeeling.a(javax_darjeeling_vm_Infusion.o)
                                                  darjeeling.a(jlib_base.o)
javax_darjeeling_vm_Infusion_java_lang_Object__getInfusion_short darjeeling.a(javax_darjeeling_vm_Infusion.o)
                                                  darjeeling.a(jlib_base.o)
javax_darjeeling_vm_Infusion_short__getImportedInfusionCount_java_lang_Object darjeeling.a(javax_darjeeling_vm_Infusion.o)
                                                  darjeeling.a(jlib_base.o)
javax_darjeeling_vm_Infusion_short_getInfusionCount darjeeling.a(javax_darjeeling_vm_Infusion.o)
                                                  darjeeling.a(jlib_base.o)
javax_darjeeling_vm_Infusion_void__unload_java_lang_Object darjeeling.a(javax_darjeeling_vm_Infusion.o)
                                                  darjeeling.a(jlib_base.o)
javax_wukong_wkpf_WKPF_boolean_getPropertyBoolean_javax_wukong_wkpf_VirtualWuObject_byte darjeeling.a(javax_wukong_wkpf_WKPF.o)
                                                  darjeeling.a(jlib_wkpf_virtual.o)
javax_wukong_wkpf_WKPF_boolean_isLocalComponent_short darjeeling.a(javax_wukong_wkpf_WKPF.o)
                                                  darjeeling.a(jlib_wkpf_virtual.o)
javax_wukong_wkpf_WKPF_boolean_updateLinking_short_short_byte_short_byte_short_byte_short_byte darjeeling.a(javax_wukong_wkpf_WKPF.o)
                                                  darjeeling.a(jlib_wkpf_virtual.o)
javax_wukong_wkpf_WKPF_boolean_updateMapping_short_short_byte_short_byte darjeeling.a(javax_wukong_wkpf_WKPF.o)
                                                  darjeeling.a(jlib_wkpf_virtual.o)
javax_wukong_wkpf_WKPF_byte_getErrorCode          darjeeling.a(javax_wukong_wkpf_WKPF.o)
                                                  darjeeling.a(jlib_wkpf_virtual.o)
javax_wukong_wkpf_WKPF_byte_getPortNumberForComponent_short darjeeling.a(javax_wukong_wkpf_WKPF.o)
                                                  darjeeling.a(jlib_wkpf_virtual.o)
javax_wukong_wkpf_WKPF_javax_wukong_wkpf_VirtualWuObject_select darjeeling.a(javax_wukong_wkpf_WKPF.o)
                                                  darjeeling.a(jlib_wkpf_virtual.o)
javax_wukong_wkpf_WKPF_short_getMyNodeId          darjeeling.a(javax_wukong_wkpf_WKPF.o)
                                                  darjeeling.a(jlib_wkpf_virtual.o)
javax_wukong_wkpf_WKPF_short_getPropertyShort_javax_wukong_wkpf_VirtualWuObject_byte darjeeling.a(javax_wukong_wkpf_WKPF.o)
                                                  darjeeling.a(jlib_wkpf_virtual.o)
javax_wukong_wkpf_WKPF_void_appInitCreateLocalObjectAndInitValues darjeeling.a(javax_wukong_wkpf_WKPF.o)
                                                  darjeeling.a(jlib_wkpf_virtual.o)
javax_wukong_wkpf_WKPF_void_appLoadInitLinkTableAndComponentMap darjeeling.a(javax_wukong_wkpf_WKPF.o)
                                                  darjeeling.a(jlib_wkpf_virtual.o)
javax_wukong_wkpf_WKPF_void_createWuObject_short_byte_javax_wukong_wkpf_VirtualWuObject darjeeling.a(javax_wukong_wkpf_WKPF.o)
                                                  darjeeling.a(jlib_wkpf_virtual.o)
javax_wukong_wkpf_WKPF_void_destroyWuObject_byte  darjeeling.a(javax_wukong_wkpf_WKPF.o)
                                                  darjeeling.a(jlib_wkpf_virtual.o)
javax_wukong_wkpf_WKPF_void_registerWuClass_short_byte__ darjeeling.a(javax_wukong_wkpf_WKPF.o)
                                                  darjeeling.a(jlib_wkpf_virtual.o)
javax_wukong_wkpf_WKPF_void_setPropertyBoolean_javax_wukong_wkpf_VirtualWuObject_byte_boolean darjeeling.a(javax_wukong_wkpf_WKPF.o)
                                                  darjeeling.a(jlib_wkpf_virtual.o)
javax_wukong_wkpf_WKPF_void_setPropertyShort_javax_wukong_wkpf_VirtualWuObject_byte_short darjeeling.a(javax_wukong_wkpf_WKPF.o)
                                                  darjeeling.a(jlib_wkpf_virtual.o)
last_node                                         darjeeling.a(radio_zwave.o)
last_propagated_property_wuobject_index           darjeeling.a(wkpf_wuobjects.o)
last_updated_wuobject_index                       darjeeling.a(wkpf_wuobjects.o)
ldexp                                             /usr/local/CrossPack-AVR-20131216/lib/gcc/avr/4.8.1/../../../../avr/lib/avr6/libm.a(ldexp.o)
                                                  /usr/local/CrossPack-AVR-20131216/lib/gcc/avr/4.8.1/../../../../avr/lib/avr6/libm.a(exp.o)
led_init                                          darjeeling.a(wkpf_init.o)
len                                               darjeeling.a(radio_zwave.o)
log                                               /usr/local/CrossPack-AVR-20131216/lib/gcc/avr/4.8.1/../../../../avr/lib/avr6/libm.a(log.o)
                                                  /usr/local/CrossPack-AVR-20131216/lib/gcc/avr/4.8.1/../../../../avr/lib/avr6/libm.a(pow.o)
main                                              darjeeling.a(main.o)
                                                  /usr/local/CrossPack-AVR-20131216/lib/gcc/avr/4.8.1/../../../../avr/lib/avr6/crtm2560.o
mem                                               darjeeling.a(main.o)
memcpy                                            /usr/local/CrossPack-AVR-20131216/lib/gcc/avr/4.8.1/../../../../avr/lib/avr6/libc.a(memcpy.o)
                                                  /usr/local/CrossPack-AVR-20131216/lib/gcc/avr/4.8.1/../../../../avr/lib/avr6/libc.a(memmove.o)
                                                  darjeeling.a(wkreprog_impl.o)
                                                  darjeeling.a(wkcomm.o)
                                                  darjeeling.a(java_lang_System.o)
memmove                                           /usr/local/CrossPack-AVR-20131216/lib/gcc/avr/4.8.1/../../../../avr/lib/avr6/libc.a(memmove.o)
                                                  darjeeling.a(java_lang_System.o)
                                                  darjeeling.a(heap.o)
memset                                            /usr/local/CrossPack-AVR-20131216/lib/gcc/avr/4.8.1/../../../../avr/lib/avr6/libc.a(memset.o)
                                                  darjeeling.a(wkpf_wuobjects.o)
                                                  darjeeling.a(wkpf_virtual_wuclasses.o)
                                                  darjeeling.a(object.o)
                                                  darjeeling.a(infusion.o)
                                                  darjeeling.a(array.o)
                                                  darjeeling.a(vmthread.o)
modf                                              /usr/local/CrossPack-AVR-20131216/lib/gcc/avr/4.8.1/../../../../avr/lib/avr6/libm.a(modf.o)
                                                  /usr/local/CrossPack-AVR-20131216/lib/gcc/avr/4.8.1/../../../../avr/lib/avr6/libm.a(exp.o)
modff                                             /usr/local/CrossPack-AVR-20131216/lib/gcc/avr/4.8.1/../../../../avr/lib/avr6/libm.a(modf.o)
payload_length                                    darjeeling.a(radio_zwave.o)
pow                                               /usr/local/CrossPack-AVR-20131216/lib/gcc/avr/4.8.1/../../../../avr/lib/avr6/libm.a(pow.o)
                                                  darjeeling.a(wuclass_ir_sensor_update.o)
radio_zwave_get_node_id                           darjeeling.a(radio_zwave.o)
                                                  darjeeling.a(routing_none.o)
radio_zwave_init                                  darjeeling.a(radio_zwave.o)
                                                  darjeeling.a(routing_none.o)
radio_zwave_learn                                 darjeeling.a(radio_zwave.o)
radio_zwave_my_address                            darjeeling.a(radio_zwave.o)
radio_zwave_my_address_loaded                     darjeeling.a(radio_zwave.o)
radio_zwave_platform_dependent_init               darjeeling.a(radio_zwave_platform_dependent.o)
                                                  darjeeling.a(radio_zwave.o)
radio_zwave_platform_dependent_poll               darjeeling.a(radio_zwave_platform_dependent.o)
                                                  darjeeling.a(radio_zwave.o)
radio_zwave_poll                                  darjeeling.a(radio_zwave.o)
                                                  darjeeling.a(routing_none.o)
radio_zwave_receive_buffer                        darjeeling.a(radio_zwave.o)
radio_zwave_reset                                 darjeeling.a(radio_zwave.o)
radio_zwave_send                                  darjeeling.a(radio_zwave.o)
                                                  darjeeling.a(routing_none.o)
radio_zwave_send_raw                              darjeeling.a(radio_zwave.o)
                                                  darjeeling.a(routing_none.o)
radio_zwave_set_node_info                         darjeeling.a(radio_zwave.o)
routing_get_node_id                               darjeeling.a(routing_none.o)
                                                  darjeeling.a(wkcomm.o)
routing_handle_zwave_message                      darjeeling.a(routing_none.o)
                                                  darjeeling.a(radio_zwave.o)
routing_init                                      darjeeling.a(routing_none.o)
                                                  darjeeling.a(wkcomm_init.o)
routing_poll                                      darjeeling.a(routing_none.o)
                                                  darjeeling.a(wkcomm.o)
routing_send                                      darjeeling.a(routing_none.o)
                                                  darjeeling.a(wkcomm.o)
routing_send_raw                                  darjeeling.a(routing_none.o)
                                                  darjeeling.a(wkcomm.o)
send_message                                      darjeeling.a(wkpf_comm.o)
send_message_withou_reply                         darjeeling.a(wkpf_comm.o)
seq                                               darjeeling.a(radio_zwave.o)
set_led                                           darjeeling.a(wuclass_LED_update.o)
snprintf                                          /usr/local/CrossPack-AVR-20131216/lib/gcc/avr/4.8.1/../../../../avr/lib/avr6/libc.a(snprintf.o)
                                                  darjeeling.a(heap.o)
stable_state                                      darjeeling.a(wkpf_links.o)
state                                             darjeeling.a(radio_zwave.o)
strnlen                                           /usr/local/CrossPack-AVR-20131216/lib/gcc/avr/4.8.1/../../../../avr/lib/avr6/libc.a(strnlen.o)
                                                  /usr/local/CrossPack-AVR-20131216/lib/gcc/avr/4.8.1/../../../../avr/lib/avr6/libc.a(vfprintf_std.o)
strnlen_P                                         /usr/local/CrossPack-AVR-20131216/lib/gcc/avr/4.8.1/../../../../avr/lib/avr6/libc.a(strnlen_P.o)
                                                  /usr/local/CrossPack-AVR-20131216/lib/gcc/avr/4.8.1/../../../../avr/lib/avr6/libc.a(vfprintf_std.o)
timer0_millis                                     darjeeling.a(avr.o)
timer0_overflow_count                             darjeeling.a(avr.o)
type                                              darjeeling.a(radio_zwave.o)
uart_available                                    darjeeling.a(uart.o)
                                                  darjeeling.a(radio_zwave.o)
uart_buf                                          darjeeling.a(uart.o)
uart_close                                        darjeeling.a(uart.o)
uart_init                                         darjeeling.a(uart_init.o)
                                                  darjeeling.a(GENERATEDlibinit.o)
uart_inituart                                     darjeeling.a(uart.o)
                                                  darjeeling.a(radio_zwave.o)
uart_openlog                                      darjeeling.a(uart.o)
uart_rd                                           darjeeling.a(uart.o)
uart_read_byte                                    darjeeling.a(uart.o)
                                                  darjeeling.a(radio_zwave.o)
uart_wr                                           darjeeling.a(uart.o)
uart_write_byte                                   darjeeling.a(uart.o)
                                                  darjeeling.a(radio_zwave.o)
vfprintf                                          /usr/local/CrossPack-AVR-20131216/lib/gcc/avr/4.8.1/../../../../avr/lib/avr6/libc.a(vfprintf_std.o)
                                                  /usr/local/CrossPack-AVR-20131216/lib/gcc/avr/4.8.1/../../../../avr/lib/avr6/libc.a(vsnprintf.o)
                                                  /usr/local/CrossPack-AVR-20131216/lib/gcc/avr/4.8.1/../../../../avr/lib/avr6/libc.a(snprintf.o)
vm_init                                           darjeeling.a(vm_init.o)
                                                  darjeeling.a(GENERATEDlibinit.o)
vm_markObjectHook                                 darjeeling.a(vm_init.o)
vm_markRootSetHook                                darjeeling.a(vm_init.o)
vm_mem_getPanicExceptionObject                    darjeeling.a(vm_gc.o)
                                                  darjeeling.a(execution.o)
vm_mem_markObject                                 darjeeling.a(vm_gc.o)
                                                  darjeeling.a(vm_init.o)
vm_mem_markRootSet                                darjeeling.a(vm_gc.o)
                                                  darjeeling.a(vm_init.o)
vm_mem_postGC                                     darjeeling.a(vm_gc.o)
                                                  darjeeling.a(vm_init.o)
vm_mem_preGC                                      darjeeling.a(vm_gc.o)
vm_mem_setPanicExceptionObject                    darjeeling.a(vm_gc.o)
                                                  darjeeling.a(vm.o)
vm_mem_updatePointers                             darjeeling.a(vm_gc.o)
                                                  darjeeling.a(vm_init.o)
vm_postGCHook                                     darjeeling.a(vm_init.o)
vm_updatePointersHook                             darjeeling.a(vm_init.o)
vsnprintf                                         /usr/local/CrossPack-AVR-20131216/lib/gcc/avr/4.8.1/../../../../avr/lib/avr6/libc.a(vsnprintf.o)
                                                  darjeeling.a(avr.o)
wait_CAN_NAK                                      darjeeling.a(radio_zwave.o)
wait_RF_ready                                     darjeeling.a(radio_zwave.o)
wkcomm_do_send                                    darjeeling.a(wkcomm.o)
wkcomm_get_node_id                                darjeeling.a(wkcomm.o)
                                                  darjeeling.a(wkpf_links.o)
                                                  darjeeling.a(javax_wukong_wkpf_WKPF.o)
wkcomm_handle_message                             darjeeling.a(wkcomm.o)
                                                  darjeeling.a(routing_none.o)
wkcomm_handle_message_hook                        darjeeling.a(wkcomm.o)
                                                  darjeeling.a(wkreprog_init.o)
                                                  darjeeling.a(wkpf_init.o)
wkcomm_init                                       darjeeling.a(wkcomm_init.o)
                                                  darjeeling.a(GENERATEDlibinit.o)
wkcomm_last_seqnr                                 darjeeling.a(wkcomm.o)
wkcomm_poll                                       darjeeling.a(wkcomm.o)
                                                  darjeeling.a(wkcomm_init.o)
wkcomm_pollingHook                                darjeeling.a(wkcomm.o)
                                                  darjeeling.a(wkcomm_init.o)
wkcomm_received_reply                             darjeeling.a(wkcomm.o)
wkcomm_send                                       darjeeling.a(wkcomm.o)
                                                  darjeeling.a(wkpf_comm.o)
wkcomm_send_and_wait_for_reply                    darjeeling.a(wkcomm.o)
                                                  darjeeling.a(wkpf_comm.o)
wkcomm_send_raw                                   darjeeling.a(wkcomm.o)
                                                  darjeeling.a(wkpf_comm.o)
wkcomm_send_reply                                 darjeeling.a(wkcomm.o)
                                                  darjeeling.a(wkreprog_comm.o)
                                                  darjeeling.a(wkpf_comm.o)
wkcomm_wait_reply_commands                        darjeeling.a(wkcomm.o)
wkcomm_wait_reply_number_of_commands              darjeeling.a(wkcomm.o)
wkcomm_wait_reply_seqnr                           darjeeling.a(wkcomm.o)
wkpf_call_adaptor                                 darjeeling.a(wkpf_comm.o)
wkpf_comm_handleMessageHook                       darjeeling.a(wkpf_init.o)
wkpf_comm_handle_message                          darjeeling.a(wkpf_comm.o)
                                                  darjeeling.a(wkpf_init.o)
wkpf_component_is_locked                          darjeeling.a(wkpf_links.o)
                                                  darjeeling.a(wkpf_comm.o)
wkpf_component_map_store                          darjeeling.a(wkpf_links.o)
wkpf_config_get_feature_enabled                   darjeeling.a(wkpf_config.o)
                                                  darjeeling.a(wkpf_comm.o)
wkpf_config_get_gid                               darjeeling.a(wkpf_config.o)
wkpf_config_get_master_node_id                    darjeeling.a(wkpf_config.o)
wkpf_config_get_part_of_location_string           darjeeling.a(wkpf_config.o)
                                                  darjeeling.a(wkpf_comm.o)
wkpf_config_set_feature_enabled                   darjeeling.a(wkpf_config.o)
                                                  darjeeling.a(wkpf_comm.o)
wkpf_config_set_gid                               darjeeling.a(wkpf_config.o)
wkpf_config_set_master_node_id                    darjeeling.a(wkpf_config.o)
wkpf_config_set_part_of_location_string           darjeeling.a(wkpf_config.o)
                                                  darjeeling.a(wkpf_comm.o)
wkpf_create_local_wuobjects_from_app_tables       darjeeling.a(wkpf_links.o)
                                                  darjeeling.a(wkpf_main.o)
wkpf_create_wuobject                              darjeeling.a(wkpf_wuobjects.o)
                                                  darjeeling.a(wkpf_links.o)
                                                  darjeeling.a(javax_wukong_wkpf_WKPF.o)
                                                  darjeeling.a(GENERATEDnative_wuclasses.o)
wkpf_does_property_need_initialisation_pull       darjeeling.a(wkpf_links.o)
                                                  darjeeling.a(wkpf_wuobjects.o)
wkpf_error_code                                   darjeeling.a(javax_wukong_wkpf_WKPF.o)
wkpf_find_token                                   darjeeling.a(wkpf_links.o)
wkpf_generate_piggyback_token                     darjeeling.a(wkpf_links.o)
                                                  darjeeling.a(wkpf_comm.o)
wkpf_get_component_id                             darjeeling.a(wkpf_links.o)
                                                  darjeeling.a(wkpf_comm.o)
wkpf_get_next_dirty_property                      darjeeling.a(wkpf_wuobjects.o)
                                                  darjeeling.a(wkpf_links.o)
wkpf_get_next_wuobject_to_update                  darjeeling.a(wkpf_wuobjects.o)
                                                  darjeeling.a(wkpf_main.o)
wkpf_get_node_and_port_for_component              darjeeling.a(wkpf_links.o)
                                                  darjeeling.a(javax_wukong_wkpf_WKPF.o)
wkpf_get_number_of_wuclasses                      darjeeling.a(wkpf_wuclasses.o)
                                                  darjeeling.a(wkpf_comm.o)
wkpf_get_number_of_wuobjects                      darjeeling.a(wkpf_wuobjects.o)
                                                  darjeeling.a(wkpf_comm.o)
wkpf_get_private_wuobject_data                    darjeeling.a(wkpf_wuobjects.o)
                                                  darjeeling.a(GENERATEDwuclass_or_gate.o)
                                                  darjeeling.a(GENERATEDwuclass_led.o)
wkpf_get_property                                 darjeeling.a(wkpf_wuobjects.o)
                                                  darjeeling.a(wkpf_properties.o)
                                                  darjeeling.a(wkpf_links.o)
wkpf_get_property_status                          darjeeling.a(wkpf_properties.o)
                                                  darjeeling.a(wkpf_comm.o)
wkpf_get_size_of_all_properties                   darjeeling.a(wkpf_wuobjects.o)
wkpf_get_wuclass_by_id                            darjeeling.a(wkpf_wuclasses.o)
                                                  darjeeling.a(wkpf_wuobjects.o)
                                                  darjeeling.a(wkpf_virtual_wuclasses.o)
                                                  darjeeling.a(wkpf_links.o)
wkpf_get_wuclass_by_index                         darjeeling.a(wkpf_wuclasses.o)
                                                  darjeeling.a(wkpf_comm.o)
wkpf_get_wuobject_by_index                        darjeeling.a(wkpf_wuobjects.o)
                                                  darjeeling.a(wkpf_comm.o)
wkpf_get_wuobject_by_java_instance_reference      darjeeling.a(wkpf_wuobjects.o)
                                                  darjeeling.a(javax_wukong_wkpf_WKPF.o)
wkpf_get_wuobject_by_port                         darjeeling.a(wkpf_wuobjects.o)
                                                  darjeeling.a(wkpf_links.o)
                                                  darjeeling.a(wkpf_comm.o)
                                                  darjeeling.a(GENERATEDnative_wuclasses.o)
wkpf_init                                         darjeeling.a(wkpf_init.o)
                                                  darjeeling.a(GENERATEDlibinit.o)
wkpf_initLinkTableAndComponentMap                 darjeeling.a(wkpf_main.o)
                                                  darjeeling.a(javax_wukong_wkpf_WKPF.o)
wkpf_initLocalObjectAndInitValues                 darjeeling.a(wkpf_main.o)
                                                  darjeeling.a(javax_wukong_wkpf_WKPF.o)
wkpf_init_token                                   darjeeling.a(wkpf_links.o)
                                                  darjeeling.a(wkpf_main.o)
wkpf_links_store                                  darjeeling.a(wkpf_links.o)
wkpf_load_component_to_wuobject_map               darjeeling.a(wkpf_links.o)
                                                  darjeeling.a(wkpf_main.o)
wkpf_load_links                                   darjeeling.a(wkpf_links.o)
                                                  darjeeling.a(wkpf_main.o)
wkpf_mainloop                                     darjeeling.a(wkpf_main.o)
                                                  darjeeling.a(javax_wukong_wkpf_WKPF.o)
wkpf_markRootSet                                  darjeeling.a(wkpf_gc.o)
                                                  darjeeling.a(wkpf_init.o)
wkpf_markRootSetHook                              darjeeling.a(wkpf_init.o)
wkpf_native_wuclasses_init                        darjeeling.a(GENERATEDnative_wuclasses.o)
                                                  darjeeling.a(wkpf_init.o)
wkpf_node_is_leader                               darjeeling.a(wkpf_links.o)
wkpf_number_of_components                         darjeeling.a(wkpf_links.o)
wkpf_number_of_links                              darjeeling.a(wkpf_links.o)
wkpf_picokong                                     darjeeling.a(wkpf_main.o)
wkpf_process_initvalues_list                      darjeeling.a(wkpf_links.o)
                                                  darjeeling.a(wkpf_main.o)
wkpf_propagate_dirty_properties                   darjeeling.a(wkpf_links.o)
                                                  darjeeling.a(wkpf_main.o)
wkpf_propagate_link_change                        darjeeling.a(wkpf_links.o)
                                                  darjeeling.a(wkpf_comm.o)
wkpf_propagate_property                           darjeeling.a(wkpf_links.o)
wkpf_propagating_dirty_property_failed            darjeeling.a(wkpf_properties.o)
                                                  darjeeling.a(wkpf_links.o)
wkpf_propagating_dirty_property_succeeded         darjeeling.a(wkpf_properties.o)
                                                  darjeeling.a(wkpf_links.o)
wkpf_property_datatype_size                       darjeeling.a(wkpf_wuobjects.o)
wkpf_property_needs_initialisation_push           darjeeling.a(wkpf_properties.o)
                                                  darjeeling.a(wkpf_comm.o)
wkpf_property_status_is_dirty                     darjeeling.a(wkpf_properties.o)
                                                  darjeeling.a(wkpf_wuobjects.o)
wkpf_pull_property                                darjeeling.a(wkpf_links.o)
wkpf_read_property_boolean                        darjeeling.a(wkpf_properties.o)
                                                  darjeeling.a(wuclass_or_gate_update.o)
                                                  darjeeling.a(wuclass_LED_update.o)
                                                  darjeeling.a(wkpf_comm.o)
                                                  darjeeling.a(javax_wukong_wkpf_WKPF.o)
wkpf_read_property_int16                          darjeeling.a(wkpf_properties.o)
                                                  darjeeling.a(wuclass_magnetic_sensor_update.o)
                                                  darjeeling.a(wkpf_comm.o)
                                                  darjeeling.a(javax_wukong_wkpf_WKPF.o)
wkpf_read_property_refresh_rate                   darjeeling.a(wkpf_properties.o)
                                                  darjeeling.a(wkpf_wuobjects.o)
                                                  darjeeling.a(wkpf_comm.o)
wkpf_register_virtual_wuclass                     darjeeling.a(wkpf_virtual_wuclasses.o)
                                                  darjeeling.a(javax_wukong_wkpf_WKPF.o)
wkpf_register_wuclass                             darjeeling.a(wkpf_wuclasses.o)
                                                  darjeeling.a(wkpf_virtual_wuclasses.o)
                                                  darjeeling.a(GENERATEDnative_wuclasses.o)
wkpf_release_token                                darjeeling.a(wkpf_links.o)
                                                  darjeeling.a(javax_wukong_wkpf_WKPF.o)
wkpf_remove_wuobject                              darjeeling.a(wkpf_wuobjects.o)
                                                  darjeeling.a(javax_wukong_wkpf_WKPF.o)
wkpf_schedule_next_update_for_wuobject            darjeeling.a(wkpf_wuobjects.o)
                                                  darjeeling.a(wkpf_properties.o)
wkpf_send_monitor_property_boolean                darjeeling.a(wkpf_comm.o)
                                                  darjeeling.a(wkpf_links.o)
wkpf_send_monitor_property_int16                  darjeeling.a(wkpf_comm.o)
                                                  darjeeling.a(wkpf_links.o)
wkpf_send_monitor_property_refresh_rate           darjeeling.a(wkpf_comm.o)
                                                  darjeeling.a(wkpf_links.o)
wkpf_send_request_property_init                   darjeeling.a(wkpf_comm.o)
                                                  darjeeling.a(wkpf_links.o)
wkpf_send_set_linktable                           darjeeling.a(wkpf_comm.o)
                                                  darjeeling.a(javax_wukong_wkpf_WKPF.o)
wkpf_send_set_linktable_no_token                  darjeeling.a(wkpf_comm.o)
                                                  darjeeling.a(javax_wukong_wkpf_WKPF.o)
wkpf_send_set_property_boolean                    darjeeling.a(wkpf_comm.o)
                                                  darjeeling.a(wkpf_links.o)
wkpf_send_set_property_int16                      darjeeling.a(wkpf_comm.o)
                                                  darjeeling.a(wkpf_links.o)
wkpf_send_set_property_refresh_rate               darjeeling.a(wkpf_comm.o)
                                                  darjeeling.a(wkpf_links.o)
wkpf_set_need_to_call_update_for_wuobject         darjeeling.a(wkpf_wuobjects.o)
                                                  darjeeling.a(wkpf_properties.o)
wkpf_set_property_status_needs_pull               darjeeling.a(wkpf_properties.o)
                                                  darjeeling.a(wkpf_wuobjects.o)
wkpf_set_request_property_init_where_necessary    darjeeling.a(wkpf_wuobjects.o)
                                                  darjeeling.a(wkpf_links.o)
wkpf_set_token                                    darjeeling.a(wkpf_links.o)
                                                  darjeeling.a(javax_wukong_wkpf_WKPF.o)
wkpf_token_dest_component                         darjeeling.a(wkpf_links.o)
wkpf_token_id                                     darjeeling.a(wkpf_links.o)
wkpf_token_setter_link                            darjeeling.a(wkpf_links.o)
wkpf_token_src_component                          darjeeling.a(wkpf_links.o)
wkpf_updatePointers                               darjeeling.a(wkpf_gc.o)
                                                  darjeeling.a(wkpf_init.o)
wkpf_updatePointersHook                           darjeeling.a(wkpf_init.o)
wkpf_update_initvalue_in_flash                    darjeeling.a(wkpf_links.o)
wkpf_update_link                                  darjeeling.a(wkpf_links.o)
                                                  darjeeling.a(javax_wukong_wkpf_WKPF.o)
wkpf_update_link_in_flash                         darjeeling.a(wkpf_links.o)
                                                  darjeeling.a(wkpf_comm.o)
wkpf_update_map_in_flash                          darjeeling.a(wkpf_links.o)
                                                  darjeeling.a(wkpf_comm.o)
                                                  darjeeling.a(javax_wukong_wkpf_WKPF.o)
wkpf_update_status_after_property_write           darjeeling.a(wkpf_properties.o)
wkpf_update_token_table                           darjeeling.a(wkpf_links.o)
wkpf_update_token_table_with_piggyback            darjeeling.a(wkpf_links.o)
                                                  darjeeling.a(wkpf_comm.o)
wkpf_verify_property_access                       darjeeling.a(wkpf_properties.o)
wkpf_virtual_init                                 darjeeling.a(wkpf_virtual_init.o)
                                                  darjeeling.a(GENERATEDlibinit.o)
wkpf_virtual_native_handler                       darjeeling.a(jlib_wkpf_virtual.o)
                                                  darjeeling.a(GENERATEDlibinit.o)
wkpf_write_property_boolean                       darjeeling.a(wkpf_properties.o)
                                                  darjeeling.a(wuclass_pir_sensor.o)
                                                  darjeeling.a(wuclass_or_gate_update.o)
                                                  darjeeling.a(wuclass_magnetic_sensor_update.o)
                                                  darjeeling.a(wkpf_links.o)
                                                  darjeeling.a(wkpf_comm.o)
                                                  darjeeling.a(javax_wukong_wkpf_WKPF.o)
wkpf_write_property_int16                         darjeeling.a(wkpf_properties.o)
                                                  darjeeling.a(wuclass_ultrasound_sensor_update.o)
                                                  darjeeling.a(wuclass_ir_sensor_update.o)
                                                  darjeeling.a(wkpf_links.o)
                                                  darjeeling.a(wkpf_comm.o)
                                                  darjeeling.a(javax_wukong_wkpf_WKPF.o)
                                                  darjeeling.a(GENERATEDnative_wuclasses.o)
wkpf_write_property_refresh_rate                  darjeeling.a(wkpf_properties.o)
                                                  darjeeling.a(wkpf_links.o)
                                                  darjeeling.a(wkpf_comm.o)
wkreprog_comm_handleMessageHook                   darjeeling.a(wkreprog_init.o)
wkreprog_comm_handle_message                      darjeeling.a(wkreprog_comm.o)
                                                  darjeeling.a(wkreprog_init.o)
wkreprog_impl_close                               darjeeling.a(wkreprog_impl.o)
                                                  darjeeling.a(wkreprog_comm.o)
                                                  darjeeling.a(wkpf_links.o)
wkreprog_impl_get_page_size                       darjeeling.a(wkreprog_impl.o)
                                                  darjeeling.a(wkreprog_comm.o)
wkreprog_impl_open                                darjeeling.a(wkreprog_impl.o)
                                                  darjeeling.a(wkreprog_comm.o)
                                                  darjeeling.a(wkreprog.o)
wkreprog_impl_reboot                              darjeeling.a(wkreprog_impl.o)
                                                  darjeeling.a(wkreprog_comm.o)
wkreprog_impl_write                               darjeeling.a(wkreprog_impl.o)
                                                  darjeeling.a(wkreprog_comm.o)
                                                  darjeeling.a(wkpf_links.o)
wkreprog_init                                     darjeeling.a(wkreprog_init.o)
                                                  darjeeling.a(GENERATEDlibinit.o)
wkreprog_open                                     darjeeling.a(wkreprog.o)
                                                  darjeeling.a(wkpf_links.o)
wuclass_ir_sensor                                 darjeeling.a(GENERATEDwuclass_ir_sensor.o)
                                                  darjeeling.a(GENERATEDnative_wuclasses.o)
wuclass_ir_sensor_setup                           darjeeling.a(wuclass_ir_sensor_update.o)
                                                  darjeeling.a(GENERATEDwuclass_ir_sensor.o)
wuclass_ir_sensor_update                          darjeeling.a(wuclass_ir_sensor_update.o)
                                                  darjeeling.a(GENERATEDwuclass_ir_sensor.o)
wuclass_led                                       darjeeling.a(GENERATEDwuclass_led.o)
                                                  darjeeling.a(GENERATEDnative_wuclasses.o)
wuclass_led_getPrivateData                        darjeeling.a(GENERATEDwuclass_led.o)
                                                  darjeeling.a(wuclass_LED_update.o)
wuclass_led_setup                                 darjeeling.a(wuclass_LED_update.o)
                                                  darjeeling.a(GENERATEDwuclass_led.o)
wuclass_led_update                                darjeeling.a(wuclass_LED_update.o)
                                                  darjeeling.a(GENERATEDwuclass_led.o)
wuclass_magnetic_sensor                           darjeeling.a(GENERATEDwuclass_magnetic_sensor.o)
                                                  darjeeling.a(GENERATEDnative_wuclasses.o)
wuclass_magnetic_sensor_setup                     darjeeling.a(wuclass_magnetic_sensor_update.o)
                                                  darjeeling.a(GENERATEDwuclass_magnetic_sensor.o)
wuclass_magnetic_sensor_update                    darjeeling.a(wuclass_magnetic_sensor_update.o)
                                                  darjeeling.a(GENERATEDwuclass_magnetic_sensor.o)
wuclass_or_gate                                   darjeeling.a(GENERATEDwuclass_or_gate.o)
                                                  darjeeling.a(GENERATEDnative_wuclasses.o)
wuclass_or_gate_getPrivateData                    darjeeling.a(GENERATEDwuclass_or_gate.o)
wuclass_or_gate_setup                             darjeeling.a(wuclass_or_gate_update.o)
                                                  darjeeling.a(GENERATEDwuclass_or_gate.o)
wuclass_or_gate_update                            darjeeling.a(wuclass_or_gate_update.o)
                                                  darjeeling.a(GENERATEDwuclass_or_gate.o)
wuclass_pir_sensor                                darjeeling.a(GENERATEDwuclass_pir_sensor.o)
                                                  darjeeling.a(GENERATEDnative_wuclasses.o)
wuclass_pir_sensor_setup                          darjeeling.a(wuclass_pir_sensor.o)
                                                  darjeeling.a(GENERATEDwuclass_pir_sensor.o)
wuclass_pir_sensor_update                         darjeeling.a(wuclass_pir_sensor.o)
                                                  darjeeling.a(GENERATEDwuclass_pir_sensor.o)
wuclass_ultrasound_sensor                         darjeeling.a(GENERATEDwuclass_ultrasound_sensor.o)
                                                  darjeeling.a(GENERATEDnative_wuclasses.o)
wuclass_ultrasound_sensor_setup                   darjeeling.a(wuclass_ultrasound_sensor_update.o)
                                                  darjeeling.a(GENERATEDwuclass_ultrasound_sensor.o)
wuclass_ultrasound_sensor_update                  darjeeling.a(wuclass_ultrasound_sensor_update.o)
                                                  darjeeling.a(GENERATEDwuclass_ultrasound_sensor.o)
wuclasses_list                                    darjeeling.a(wkpf_wuclasses.o)
                                                  darjeeling.a(wkpf_gc.o)
wuobjects_list                                    darjeeling.a(wkpf_wuobjects.o)
                                                  darjeeling.a(wkpf_gc.o)
zwave_btn_is_push                                 darjeeling.a(radio_zwave.o)
                                                  darjeeling.a(radio_zwave_platform_dependent.o)
zwave_btn_is_release                              darjeeling.a(radio_zwave.o)
                                                  darjeeling.a(radio_zwave_platform_dependent.o)
zwave_learn_block                                 darjeeling.a(radio_zwave.o)
zwave_learn_on                                    darjeeling.a(radio_zwave.o)
zwave_led                                         darjeeling.a(radio_zwave.o)
zwave_mode                                        darjeeling.a(radio_zwave.o)
zwave_time_btn_interrupt                          darjeeling.a(radio_zwave.o)
zwave_time_btn_push                               darjeeling.a(radio_zwave.o)
                                                  darjeeling.a(radio_zwave_platform_dependent.o)
zwave_time_btn_release                            darjeeling.a(radio_zwave.o)
                                                  darjeeling.a(radio_zwave_platform_dependent.o)
zwave_time_learn_start                            darjeeling.a(radio_zwave.o)
zwsend_ack_got                                    darjeeling.a(radio_zwave.o)
